
output/kfs-4.bin:     file format elf32-i386


Disassembly of section .text:

00200000 <print_esp-0x10>:
  200000:	02 b0 ad 1b 03 00    	add    0x31bad(%eax),%dh
  200006:	00 00                	add    %al,(%eax)
  200008:	fb                   	sti
  200009:	4f                   	dec    %edi
  20000a:	52                   	push   %edx
  20000b:	e4 66                	in     $0x66,%al
  20000d:	90                   	nop
  20000e:	66 90                	xchg   %ax,%ax

00200010 <print_esp>:
  200010:	55                   	push   %ebp
  200011:	89 e5                	mov    %esp,%ebp
  200013:	53                   	push   %ebx
  200014:	83 ec 10             	sub    $0x10,%esp
  200017:	8b 5d 08             	mov    0x8(%ebp),%ebx
  20001a:	68 64 40 20 00       	push   $0x204064
  20001f:	e8 3c 0d 00 00       	call   200d60 <printf>
  200024:	83 c4 0c             	add    $0xc,%esp
  200027:	ff 33                	push   (%ebx)
  200029:	53                   	push   %ebx
  20002a:	68 6a 40 20 00       	push   $0x20406a
  20002f:	e8 2c 0d 00 00       	call   200d60 <printf>
  200034:	83 c4 10             	add    $0x10,%esp
  200037:	8b 5d fc             	mov    -0x4(%ebp),%ebx
  20003a:	c9                   	leave
  20003b:	c3                   	ret
  20003c:	8d 74 26 00          	lea    0x0(%esi,%eiz,1),%esi

00200040 <kernel_main>:
  200040:	55                   	push   %ebp
  200041:	89 e5                	mov    %esp,%ebp
  200043:	83 ec 08             	sub    $0x8,%esp
  200046:	c7 05 04 f0 20 00 00 	movl   $0xb8000,0x20f004
  20004d:	80 0b 00 
  200050:	e8 bb 05 00 00       	call   200610 <terminal_initialize>
  200055:	e8 e6 06 00 00       	call   200740 <gdt_init>
  20005a:	e8 f1 08 00 00       	call   200950 <idt_initialize>
  20005f:	90                   	nop
  200060:	f4                   	hlt
  200061:	eb fd                	jmp    200060 <kernel_main+0x20>
  200063:	66 90                	xchg   %ax,%ax
  200065:	66 90                	xchg   %ax,%ax
  200067:	66 90                	xchg   %ax,%ax
  200069:	66 90                	xchg   %ax,%ax
  20006b:	66 90                	xchg   %ax,%ax
  20006d:	66 90                	xchg   %ax,%ax
  20006f:	90                   	nop

00200070 <update_cursor>:
  200070:	55                   	push   %ebp
  200071:	89 e5                	mov    %esp,%ebp
  200073:	53                   	push   %ebx
  200074:	83 ec 0c             	sub    $0xc,%esp
  200077:	8b 5d 0c             	mov    0xc(%ebp),%ebx
  20007a:	6a 0f                	push   $0xf
  20007c:	68 d4 03 00 00       	push   $0x3d4
  200081:	8d 1c 9b             	lea    (%ebx,%ebx,4),%ebx
  200084:	c1 e3 04             	shl    $0x4,%ebx
  200087:	66 03 5d 08          	add    0x8(%ebp),%bx
  20008b:	e8 d0 09 00 00       	call   200a60 <outb>
  200090:	58                   	pop    %eax
  200091:	5a                   	pop    %edx
  200092:	0f b6 c3             	movzbl %bl,%eax
  200095:	0f b6 df             	movzbl %bh,%ebx
  200098:	50                   	push   %eax
  200099:	68 d5 03 00 00       	push   $0x3d5
  20009e:	e8 bd 09 00 00       	call   200a60 <outb>
  2000a3:	59                   	pop    %ecx
  2000a4:	58                   	pop    %eax
  2000a5:	6a 0e                	push   $0xe
  2000a7:	68 d4 03 00 00       	push   $0x3d4
  2000ac:	e8 af 09 00 00       	call   200a60 <outb>
  2000b1:	89 5d 0c             	mov    %ebx,0xc(%ebp)
  2000b4:	83 c4 10             	add    $0x10,%esp
  2000b7:	c7 45 08 d5 03 00 00 	movl   $0x3d5,0x8(%ebp)
  2000be:	8b 5d fc             	mov    -0x4(%ebp),%ebx
  2000c1:	c9                   	leave
  2000c2:	e9 99 09 00 00       	jmp    200a60 <outb>
  2000c7:	89 f6                	mov    %esi,%esi
  2000c9:	8d bc 27 00 00 00 00 	lea    0x0(%edi,%eiz,1),%edi

002000d0 <scroll_down>:
  2000d0:	55                   	push   %ebp
  2000d1:	89 e5                	mov    %esp,%ebp
  2000d3:	56                   	push   %esi
  2000d4:	53                   	push   %ebx
  2000d5:	8b 1d 04 f0 20 00    	mov    0x20f004,%ebx
  2000db:	8d b3 00 0f 00 00    	lea    0xf00(%ebx),%esi
  2000e1:	89 d8                	mov    %ebx,%eax
  2000e3:	8d b6 00 00 00 00    	lea    0x0(%esi),%esi
  2000e9:	8d bc 27 00 00 00 00 	lea    0x0(%edi,%eiz,1),%edi
  2000f0:	8d 88 a0 00 00 00    	lea    0xa0(%eax),%ecx
  2000f6:	8d 76 00             	lea    0x0(%esi),%esi
  2000f9:	8d bc 27 00 00 00 00 	lea    0x0(%edi,%eiz,1),%edi
  200100:	0f b7 90 a0 00 00 00 	movzwl 0xa0(%eax),%edx
  200107:	83 c0 02             	add    $0x2,%eax
  20010a:	66 89 50 fe          	mov    %dx,-0x2(%eax)
  20010e:	39 c1                	cmp    %eax,%ecx
  200110:	75 ee                	jne    200100 <scroll_down+0x30>
  200112:	39 f1                	cmp    %esi,%ecx
  200114:	75 da                	jne    2000f0 <scroll_down+0x20>
  200116:	be 00 0f 00 00       	mov    $0xf00,%esi
  20011b:	eb 09                	jmp    200126 <scroll_down+0x56>
  20011d:	8d 76 00             	lea    0x0(%esi),%esi
  200120:	8b 1d 04 f0 20 00    	mov    0x20f004,%ebx
  200126:	a1 08 f0 20 00       	mov    0x20f008,%eax
  20012b:	83 ec 08             	sub    $0x8,%esp
  20012e:	01 f3                	add    %esi,%ebx
  200130:	83 c6 02             	add    $0x2,%esi
  200133:	0f b6 40 08          	movzbl 0x8(%eax),%eax
  200137:	50                   	push   %eax
  200138:	6a 20                	push   $0x20
  20013a:	e8 c1 01 00 00       	call   200300 <vga_entry>
  20013f:	83 c4 10             	add    $0x10,%esp
  200142:	81 fe a0 0f 00 00    	cmp    $0xfa0,%esi
  200148:	66 89 03             	mov    %ax,(%ebx)
  20014b:	75 d3                	jne    200120 <scroll_down+0x50>
  20014d:	a1 08 f0 20 00       	mov    0x20f008,%eax
  200152:	83 ec 08             	sub    $0x8,%esp
  200155:	ff 30                	push   (%eax)
  200157:	ff 70 04             	push   0x4(%eax)
  20015a:	e8 11 ff ff ff       	call   200070 <update_cursor>
  20015f:	83 c4 10             	add    $0x10,%esp
  200162:	8d 65 f8             	lea    -0x8(%ebp),%esp
  200165:	5b                   	pop    %ebx
  200166:	5e                   	pop    %esi
  200167:	5d                   	pop    %ebp
  200168:	c3                   	ret
  200169:	8d b4 26 00 00 00 00 	lea    0x0(%esi,%eiz,1),%esi

00200170 <terminal_putentryat>:
  200170:	55                   	push   %ebp
  200171:	89 e5                	mov    %esp,%ebp
  200173:	53                   	push   %ebx
  200174:	83 ec 0c             	sub    $0xc,%esp
  200177:	8b 45 14             	mov    0x14(%ebp),%eax
  20017a:	8b 15 04 f0 20 00    	mov    0x20f004,%edx
  200180:	8d 04 80             	lea    (%eax,%eax,4),%eax
  200183:	c1 e0 04             	shl    $0x4,%eax
  200186:	03 45 10             	add    0x10(%ebp),%eax
  200189:	8d 1c 42             	lea    (%edx,%eax,2),%ebx
  20018c:	0f b6 45 0c          	movzbl 0xc(%ebp),%eax
  200190:	50                   	push   %eax
  200191:	0f b6 45 08          	movzbl 0x8(%ebp),%eax
  200195:	50                   	push   %eax
  200196:	e8 65 01 00 00       	call   200300 <vga_entry>
  20019b:	83 c4 10             	add    $0x10,%esp
  20019e:	66 89 03             	mov    %ax,(%ebx)
  2001a1:	8b 5d fc             	mov    -0x4(%ebp),%ebx
  2001a4:	c9                   	leave
  2001a5:	c3                   	ret
  2001a6:	8d 76 00             	lea    0x0(%esi),%esi
  2001a9:	8d bc 27 00 00 00 00 	lea    0x0(%edi,%eiz,1),%edi

002001b0 <terminal_putchar>:
  2001b0:	55                   	push   %ebp
  2001b1:	89 e5                	mov    %esp,%ebp
  2001b3:	53                   	push   %ebx
  2001b4:	83 ec 04             	sub    $0x4,%esp
  2001b7:	8b 4d 08             	mov    0x8(%ebp),%ecx
  2001ba:	a1 08 f0 20 00       	mov    0x20f008,%eax
  2001bf:	80 f9 0a             	cmp    $0xa,%cl
  2001c2:	8b 10                	mov    (%eax),%edx
  2001c4:	75 1a                	jne    2001e0 <terminal_putchar+0x30>
  2001c6:	83 c2 01             	add    $0x1,%edx
  2001c9:	c7 40 04 00 00 00 00 	movl   $0x0,0x4(%eax)
  2001d0:	83 fa 19             	cmp    $0x19,%edx
  2001d3:	74 5b                	je     200230 <terminal_putchar+0x80>
  2001d5:	89 10                	mov    %edx,(%eax)
  2001d7:	8b 5d fc             	mov    -0x4(%ebp),%ebx
  2001da:	c9                   	leave
  2001db:	c3                   	ret
  2001dc:	8d 74 26 00          	lea    0x0(%esi,%eiz,1),%esi
  2001e0:	8d 14 92             	lea    (%edx,%edx,4),%edx
  2001e3:	83 ec 08             	sub    $0x8,%esp
  2001e6:	8b 1d 04 f0 20 00    	mov    0x20f004,%ebx
  2001ec:	0f b6 c9             	movzbl %cl,%ecx
  2001ef:	c1 e2 04             	shl    $0x4,%edx
  2001f2:	03 50 04             	add    0x4(%eax),%edx
  2001f5:	0f b6 40 08          	movzbl 0x8(%eax),%eax
  2001f9:	50                   	push   %eax
  2001fa:	51                   	push   %ecx
  2001fb:	8d 1c 53             	lea    (%ebx,%edx,2),%ebx
  2001fe:	e8 fd 00 00 00       	call   200300 <vga_entry>
  200203:	8b 15 08 f0 20 00    	mov    0x20f008,%edx
  200209:	66 89 03             	mov    %ax,(%ebx)
  20020c:	83 c4 10             	add    $0x10,%esp
  20020f:	8b 42 04             	mov    0x4(%edx),%eax
  200212:	83 c0 01             	add    $0x1,%eax
  200215:	83 f8 50             	cmp    $0x50,%eax
  200218:	74 26                	je     200240 <terminal_putchar+0x90>
  20021a:	89 42 04             	mov    %eax,0x4(%edx)
  20021d:	8b 5d fc             	mov    -0x4(%ebp),%ebx
  200220:	c9                   	leave
  200221:	c3                   	ret
  200222:	8d b4 26 00 00 00 00 	lea    0x0(%esi,%eiz,1),%esi
  200229:	8d bc 27 00 00 00 00 	lea    0x0(%edi,%eiz,1),%edi
  200230:	c7 00 18 00 00 00    	movl   $0x18,(%eax)
  200236:	8b 5d fc             	mov    -0x4(%ebp),%ebx
  200239:	c9                   	leave
  20023a:	e9 91 fe ff ff       	jmp    2000d0 <scroll_down>
  20023f:	90                   	nop
  200240:	8b 02                	mov    (%edx),%eax
  200242:	c7 42 04 00 00 00 00 	movl   $0x0,0x4(%edx)
  200249:	83 c0 01             	add    $0x1,%eax
  20024c:	83 f8 19             	cmp    $0x19,%eax
  20024f:	74 0f                	je     200260 <terminal_putchar+0xb0>
  200251:	89 02                	mov    %eax,(%edx)
  200253:	8b 5d fc             	mov    -0x4(%ebp),%ebx
  200256:	c9                   	leave
  200257:	c3                   	ret
  200258:	90                   	nop
  200259:	8d b4 26 00 00 00 00 	lea    0x0(%esi,%eiz,1),%esi
  200260:	c7 02 18 00 00 00    	movl   $0x18,(%edx)
  200266:	8b 5d fc             	mov    -0x4(%ebp),%ebx
  200269:	c9                   	leave
  20026a:	e9 61 fe ff ff       	jmp    2000d0 <scroll_down>
  20026f:	90                   	nop

00200270 <terminal_write_char>:
  200270:	55                   	push   %ebp
  200271:	89 e5                	mov    %esp,%ebp
  200273:	83 ec 14             	sub    $0x14,%esp
  200276:	0f be 45 08          	movsbl 0x8(%ebp),%eax
  20027a:	50                   	push   %eax
  20027b:	e8 30 ff ff ff       	call   2001b0 <terminal_putchar>
  200280:	a1 08 f0 20 00       	mov    0x20f008,%eax
  200285:	5a                   	pop    %edx
  200286:	59                   	pop    %ecx
  200287:	ff 30                	push   (%eax)
  200289:	ff 70 04             	push   0x4(%eax)
  20028c:	e8 df fd ff ff       	call   200070 <update_cursor>
  200291:	83 c4 10             	add    $0x10,%esp
  200294:	c9                   	leave
  200295:	c3                   	ret
  200296:	8d 76 00             	lea    0x0(%esi),%esi
  200299:	8d bc 27 00 00 00 00 	lea    0x0(%edi,%eiz,1),%edi

002002a0 <terminal_write_line>:
  2002a0:	55                   	push   %ebp
  2002a1:	89 e5                	mov    %esp,%ebp
  2002a3:	56                   	push   %esi
  2002a4:	53                   	push   %ebx
  2002a5:	8b 75 08             	mov    0x8(%ebp),%esi
  2002a8:	31 db                	xor    %ebx,%ebx
  2002aa:	eb 17                	jmp    2002c3 <terminal_write_line+0x23>
  2002ac:	8d 74 26 00          	lea    0x0(%esi,%eiz,1),%esi
  2002b0:	0f be 04 1e          	movsbl (%esi,%ebx,1),%eax
  2002b4:	83 ec 0c             	sub    $0xc,%esp
  2002b7:	83 c3 01             	add    $0x1,%ebx
  2002ba:	50                   	push   %eax
  2002bb:	e8 f0 fe ff ff       	call   2001b0 <terminal_putchar>
  2002c0:	83 c4 10             	add    $0x10,%esp
  2002c3:	83 ec 0c             	sub    $0xc,%esp
  2002c6:	56                   	push   %esi
  2002c7:	e8 54 09 00 00       	call   200c20 <strlen>
  2002cc:	83 c4 10             	add    $0x10,%esp
  2002cf:	39 d8                	cmp    %ebx,%eax
  2002d1:	77 dd                	ja     2002b0 <terminal_write_line+0x10>
  2002d3:	a1 08 f0 20 00       	mov    0x20f008,%eax
  2002d8:	83 ec 08             	sub    $0x8,%esp
  2002db:	ff 30                	push   (%eax)
  2002dd:	ff 70 04             	push   0x4(%eax)
  2002e0:	e8 8b fd ff ff       	call   200070 <update_cursor>
  2002e5:	83 c4 10             	add    $0x10,%esp
  2002e8:	8d 65 f8             	lea    -0x8(%ebp),%esp
  2002eb:	5b                   	pop    %ebx
  2002ec:	5e                   	pop    %esi
  2002ed:	5d                   	pop    %ebp
  2002ee:	c3                   	ret
  2002ef:	90                   	nop

002002f0 <vga_entry_color>:
  2002f0:	55                   	push   %ebp
  2002f1:	89 e5                	mov    %esp,%ebp
  2002f3:	0f b6 45 0c          	movzbl 0xc(%ebp),%eax
  2002f7:	c1 e0 04             	shl    $0x4,%eax
  2002fa:	0a 45 08             	or     0x8(%ebp),%al
  2002fd:	5d                   	pop    %ebp
  2002fe:	c3                   	ret
  2002ff:	90                   	nop

00200300 <vga_entry>:
  200300:	55                   	push   %ebp
  200301:	89 e5                	mov    %esp,%ebp
  200303:	0f b6 45 0c          	movzbl 0xc(%ebp),%eax
  200307:	c1 e0 08             	shl    $0x8,%eax
  20030a:	89 c2                	mov    %eax,%edx
  20030c:	0f b6 45 08          	movzbl 0x8(%ebp),%eax
  200310:	5d                   	pop    %ebp
  200311:	09 d0                	or     %edx,%eax
  200313:	c3                   	ret
  200314:	66 90                	xchg   %ax,%ax
  200316:	66 90                	xchg   %ax,%ax
  200318:	66 90                	xchg   %ax,%ax
  20031a:	66 90                	xchg   %ax,%ax
  20031c:	66 90                	xchg   %ax,%ax
  20031e:	66 90                	xchg   %ax,%ax

00200320 <read_keyboard>:
  200320:	55                   	push   %ebp
  200321:	89 e5                	mov    %esp,%ebp
  200323:	83 ec 08             	sub    $0x8,%esp
  200326:	8d 76 00             	lea    0x0(%esi),%esi
  200329:	8d bc 27 00 00 00 00 	lea    0x0(%edi,%eiz,1),%edi
  200330:	83 ec 0c             	sub    $0xc,%esp
  200333:	6a 64                	push   $0x64
  200335:	e8 36 07 00 00       	call   200a70 <inb>
  20033a:	83 c4 10             	add    $0x10,%esp
  20033d:	a8 01                	test   $0x1,%al
  20033f:	74 ef                	je     200330 <read_keyboard+0x10>
  200341:	83 ec 0c             	sub    $0xc,%esp
  200344:	6a 60                	push   $0x60
  200346:	e8 25 07 00 00       	call   200a70 <inb>
  20034b:	c9                   	leave
  20034c:	c3                   	ret
  20034d:	8d 76 00             	lea    0x0(%esi),%esi

00200350 <backspace>:
  200350:	55                   	push   %ebp
  200351:	89 e5                	mov    %esp,%ebp
  200353:	53                   	push   %ebx
  200354:	83 ec 04             	sub    $0x4,%esp
  200357:	8b 15 08 f0 20 00    	mov    0x20f008,%edx
  20035d:	8b 42 04             	mov    0x4(%edx),%eax
  200360:	8b 1a                	mov    (%edx),%ebx
  200362:	85 c0                	test   %eax,%eax
  200364:	75 6a                	jne    2003d0 <backspace+0x80>
  200366:	31 c0                	xor    %eax,%eax
  200368:	85 db                	test   %ebx,%ebx
  20036a:	74 39                	je     2003a5 <backspace+0x55>
  20036c:	83 eb 01             	sub    $0x1,%ebx
  20036f:	b8 4f 00 00 00       	mov    $0x4f,%eax
  200374:	8d 0c 9b             	lea    (%ebx,%ebx,4),%ecx
  200377:	89 1a                	mov    %ebx,(%edx)
  200379:	c1 e1 05             	shl    $0x5,%ecx
  20037c:	03 0d 04 f0 20 00    	add    0x20f004,%ecx
  200382:	eb 18                	jmp    20039c <backspace+0x4c>
  200384:	8d b6 00 00 00 00    	lea    0x0(%esi),%esi
  20038a:	8d bf 00 00 00 00    	lea    0x0(%edi),%edi
  200390:	85 c0                	test   %eax,%eax
  200392:	74 4c                	je     2003e0 <backspace+0x90>
  200394:	83 e8 01             	sub    $0x1,%eax
  200397:	83 f8 ff             	cmp    $0xffffffff,%eax
  20039a:	74 4d                	je     2003e9 <backspace+0x99>
  20039c:	f6 04 41 df          	testb  $0xdf,(%ecx,%eax,2)
  2003a0:	74 ee                	je     200390 <backspace+0x40>
  2003a2:	89 42 04             	mov    %eax,0x4(%edx)
  2003a5:	53                   	push   %ebx
  2003a6:	50                   	push   %eax
  2003a7:	0f b6 42 08          	movzbl 0x8(%edx),%eax
  2003ab:	50                   	push   %eax
  2003ac:	6a 20                	push   $0x20
  2003ae:	e8 bd fd ff ff       	call   200170 <terminal_putentryat>
  2003b3:	a1 08 f0 20 00       	mov    0x20f008,%eax
  2003b8:	5a                   	pop    %edx
  2003b9:	59                   	pop    %ecx
  2003ba:	ff 30                	push   (%eax)
  2003bc:	ff 70 04             	push   0x4(%eax)
  2003bf:	e8 ac fc ff ff       	call   200070 <update_cursor>
  2003c4:	83 c4 10             	add    $0x10,%esp
  2003c7:	8b 5d fc             	mov    -0x4(%ebp),%ebx
  2003ca:	c9                   	leave
  2003cb:	c3                   	ret
  2003cc:	8d 74 26 00          	lea    0x0(%esi,%eiz,1),%esi
  2003d0:	83 e8 01             	sub    $0x1,%eax
  2003d3:	89 42 04             	mov    %eax,0x4(%edx)
  2003d6:	eb cd                	jmp    2003a5 <backspace+0x55>
  2003d8:	90                   	nop
  2003d9:	8d b4 26 00 00 00 00 	lea    0x0(%esi,%eiz,1),%esi
  2003e0:	c7 42 04 00 00 00 00 	movl   $0x0,0x4(%edx)
  2003e7:	eb bc                	jmp    2003a5 <backspace+0x55>
  2003e9:	31 c0                	xor    %eax,%eax
  2003eb:	eb b8                	jmp    2003a5 <backspace+0x55>
  2003ed:	8d 76 00             	lea    0x0(%esi),%esi

002003f0 <switch_tab>:
  2003f0:	55                   	push   %ebp
  2003f1:	89 e5                	mov    %esp,%ebp
  2003f3:	53                   	push   %ebx
  2003f4:	83 ec 10             	sub    $0x10,%esp
  2003f7:	8b 5d 10             	mov    0x10(%ebp),%ebx
  2003fa:	8b 45 08             	mov    0x8(%ebp),%eax
  2003fd:	ff 75 0c             	push   0xc(%ebp)
  200400:	a3 00 f0 20 00       	mov    %eax,0x20f000
  200405:	e8 66 02 00 00       	call   200670 <backup_terminal>
  20040a:	89 5d 08             	mov    %ebx,0x8(%ebp)
  20040d:	83 c4 10             	add    $0x10,%esp
  200410:	8b 5d fc             	mov    -0x4(%ebp),%ebx
  200413:	c9                   	leave
  200414:	e9 87 02 00 00       	jmp    2006a0 <flush_terminal>
  200419:	8d b4 26 00 00 00 00 	lea    0x0(%esi,%eiz,1),%esi

00200420 <keyboard_handler>:
  200420:	55                   	push   %ebp
  200421:	89 e5                	mov    %esp,%ebp
  200423:	83 ec 14             	sub    $0x14,%esp
  200426:	6a 60                	push   $0x60
  200428:	e8 43 06 00 00       	call   200a70 <inb>
  20042d:	83 c4 10             	add    $0x10,%esp
  200430:	84 c0                	test   %al,%al
  200432:	78 1c                	js     200450 <keyboard_handler+0x30>
  200434:	3c 0e                	cmp    $0xe,%al
  200436:	0f 84 c4 00 00 00    	je     200500 <keyboard_handler+0xe0>
  20043c:	3c 3b                	cmp    $0x3b,%al
  20043e:	74 20                	je     200460 <keyboard_handler+0x40>
  200440:	3c 3c                	cmp    $0x3c,%al
  200442:	74 7c                	je     2004c0 <keyboard_handler+0xa0>
  200444:	0f b6 c0             	movzbl %al,%eax
  200447:	80 b8 80 e0 20 00 00 	cmpb   $0x0,0x20e080(%eax)
  20044e:	74 50                	je     2004a0 <keyboard_handler+0x80>
  200450:	c9                   	leave
  200451:	c3                   	ret
  200452:	8d b4 26 00 00 00 00 	lea    0x0(%esi,%eiz,1),%esi
  200459:	8d bc 27 00 00 00 00 	lea    0x0(%edi,%eiz,1),%edi
  200460:	83 3d 00 f0 20 00 01 	cmpl   $0x1,0x20f000
  200467:	75 e7                	jne    200450 <keyboard_handler+0x30>
  200469:	83 ec 0c             	sub    $0xc,%esp
  20046c:	c7 05 00 f0 20 00 00 	movl   $0x0,0x20f000
  200473:	00 00 00 
  200476:	68 58 0f 21 00       	push   $0x210f58
  20047b:	e8 f0 01 00 00       	call   200670 <backup_terminal>
  200480:	c7 04 24 0c f0 20 00 	movl   $0x20f00c,(%esp)
  200487:	e8 14 02 00 00       	call   2006a0 <flush_terminal>
  20048c:	83 c4 10             	add    $0x10,%esp
  20048f:	c9                   	leave
  200490:	c3                   	ret
  200491:	eb 0d                	jmp    2004a0 <keyboard_handler+0x80>
  200493:	90                   	nop
  200494:	90                   	nop
  200495:	90                   	nop
  200496:	90                   	nop
  200497:	90                   	nop
  200498:	90                   	nop
  200499:	90                   	nop
  20049a:	90                   	nop
  20049b:	90                   	nop
  20049c:	90                   	nop
  20049d:	90                   	nop
  20049e:	90                   	nop
  20049f:	90                   	nop
  2004a0:	0f be 80 00 e0 20 00 	movsbl 0x20e000(%eax),%eax
  2004a7:	83 ec 0c             	sub    $0xc,%esp
  2004aa:	50                   	push   %eax
  2004ab:	e8 c0 fd ff ff       	call   200270 <terminal_write_char>
  2004b0:	83 c4 10             	add    $0x10,%esp
  2004b3:	c9                   	leave
  2004b4:	c3                   	ret
  2004b5:	8d 74 26 00          	lea    0x0(%esi,%eiz,1),%esi
  2004b9:	8d bc 27 00 00 00 00 	lea    0x0(%edi,%eiz,1),%edi
  2004c0:	a1 00 f0 20 00       	mov    0x20f000,%eax
  2004c5:	85 c0                	test   %eax,%eax
  2004c7:	75 87                	jne    200450 <keyboard_handler+0x30>
  2004c9:	83 ec 0c             	sub    $0xc,%esp
  2004cc:	c7 05 00 f0 20 00 01 	movl   $0x1,0x20f000
  2004d3:	00 00 00 
  2004d6:	68 0c f0 20 00       	push   $0x20f00c
  2004db:	e8 90 01 00 00       	call   200670 <backup_terminal>
  2004e0:	c7 04 24 58 0f 21 00 	movl   $0x210f58,(%esp)
  2004e7:	e8 b4 01 00 00       	call   2006a0 <flush_terminal>
  2004ec:	83 c4 10             	add    $0x10,%esp
  2004ef:	c9                   	leave
  2004f0:	c3                   	ret
  2004f1:	eb 0d                	jmp    200500 <keyboard_handler+0xe0>
  2004f3:	90                   	nop
  2004f4:	90                   	nop
  2004f5:	90                   	nop
  2004f6:	90                   	nop
  2004f7:	90                   	nop
  2004f8:	90                   	nop
  2004f9:	90                   	nop
  2004fa:	90                   	nop
  2004fb:	90                   	nop
  2004fc:	90                   	nop
  2004fd:	90                   	nop
  2004fe:	90                   	nop
  2004ff:	90                   	nop
  200500:	c9                   	leave
  200501:	e9 4a fe ff ff       	jmp    200350 <backspace>
  200506:	8d 76 00             	lea    0x0(%esi),%esi
  200509:	8d bc 27 00 00 00 00 	lea    0x0(%edi,%eiz,1),%edi

00200510 <keyboard_poll>:
  200510:	55                   	push   %ebp
  200511:	89 e5                	mov    %esp,%ebp
  200513:	83 ec 08             	sub    $0x8,%esp
  200516:	e8 05 ff ff ff       	call   200420 <keyboard_handler>
  20051b:	83 ec 0c             	sub    $0xc,%esp
  20051e:	68 76 40 20 00       	push   $0x204076
  200523:	e8 f8 08 00 00       	call   200e20 <printk>
  200528:	c7 04 24 80 40 20 00 	movl   $0x204080,(%esp)
  20052f:	e8 ec 08 00 00       	call   200e20 <printk>
  200534:	c7 04 24 01 00 00 00 	movl   $0x1,(%esp)
  20053b:	e8 40 05 00 00       	call   200a80 <PIC_sendEOI>
  200540:	83 c4 10             	add    $0x10,%esp
  200543:	c9                   	leave
  200544:	c3                   	ret
  200545:	66 90                	xchg   %ax,%ax
  200547:	66 90                	xchg   %ax,%ax
  200549:	66 90                	xchg   %ax,%ax
  20054b:	66 90                	xchg   %ax,%ax
  20054d:	66 90                	xchg   %ax,%ax
  20054f:	90                   	nop

00200550 <set_background>:
  200550:	55                   	push   %ebp
  200551:	89 e5                	mov    %esp,%ebp
  200553:	53                   	push   %ebx
  200554:	8b 45 08             	mov    0x8(%ebp),%eax
  200557:	0f b7 4d 0c          	movzwl 0xc(%ebp),%ecx
  20055b:	8d 98 a0 0f 00 00    	lea    0xfa0(%eax),%ebx
  200561:	eb 0d                	jmp    200570 <set_background+0x20>
  200563:	90                   	nop
  200564:	90                   	nop
  200565:	90                   	nop
  200566:	90                   	nop
  200567:	90                   	nop
  200568:	90                   	nop
  200569:	90                   	nop
  20056a:	90                   	nop
  20056b:	90                   	nop
  20056c:	90                   	nop
  20056d:	90                   	nop
  20056e:	90                   	nop
  20056f:	90                   	nop
  200570:	8d 90 a0 00 00 00    	lea    0xa0(%eax),%edx
  200576:	8d 76 00             	lea    0x0(%esi),%esi
  200579:	8d bc 27 00 00 00 00 	lea    0x0(%edi,%eiz,1),%edi
  200580:	66 89 08             	mov    %cx,(%eax)
  200583:	83 c0 02             	add    $0x2,%eax
  200586:	39 d0                	cmp    %edx,%eax
  200588:	75 f6                	jne    200580 <set_background+0x30>
  20058a:	39 d8                	cmp    %ebx,%eax
  20058c:	75 e2                	jne    200570 <set_background+0x20>
  20058e:	5b                   	pop    %ebx
  20058f:	5d                   	pop    %ebp
  200590:	c3                   	ret
  200591:	eb 0d                	jmp    2005a0 <init_terminal>
  200593:	90                   	nop
  200594:	90                   	nop
  200595:	90                   	nop
  200596:	90                   	nop
  200597:	90                   	nop
  200598:	90                   	nop
  200599:	90                   	nop
  20059a:	90                   	nop
  20059b:	90                   	nop
  20059c:	90                   	nop
  20059d:	90                   	nop
  20059e:	90                   	nop
  20059f:	90                   	nop

002005a0 <init_terminal>:
  2005a0:	55                   	push   %ebp
  2005a1:	89 e5                	mov    %esp,%ebp
  2005a3:	53                   	push   %ebx
  2005a4:	83 ec 0c             	sub    $0xc,%esp
  2005a7:	8b 5d 08             	mov    0x8(%ebp),%ebx
  2005aa:	8b 45 0c             	mov    0xc(%ebp),%eax
  2005ad:	88 43 08             	mov    %al,0x8(%ebx)
  2005b0:	0f b6 c0             	movzbl %al,%eax
  2005b3:	c7 43 04 00 00 00 00 	movl   $0x0,0x4(%ebx)
  2005ba:	c7 03 00 00 00 00    	movl   $0x0,(%ebx)
  2005c0:	50                   	push   %eax
  2005c1:	6a 20                	push   $0x20
  2005c3:	e8 38 fd ff ff       	call   200300 <vga_entry>
  2005c8:	8d 53 0a             	lea    0xa(%ebx),%edx
  2005cb:	83 c4 10             	add    $0x10,%esp
  2005ce:	81 c3 aa 0f 00 00    	add    $0xfaa,%ebx
  2005d4:	8d b6 00 00 00 00    	lea    0x0(%esi),%esi
  2005da:	8d bf 00 00 00 00    	lea    0x0(%edi),%edi
  2005e0:	8d 8a a0 00 00 00    	lea    0xa0(%edx),%ecx
  2005e6:	8d 76 00             	lea    0x0(%esi),%esi
  2005e9:	8d bc 27 00 00 00 00 	lea    0x0(%edi,%eiz,1),%edi
  2005f0:	66 89 02             	mov    %ax,(%edx)
  2005f3:	83 c2 02             	add    $0x2,%edx
  2005f6:	39 ca                	cmp    %ecx,%edx
  2005f8:	75 f6                	jne    2005f0 <init_terminal+0x50>
  2005fa:	39 da                	cmp    %ebx,%edx
  2005fc:	75 e2                	jne    2005e0 <init_terminal+0x40>
  2005fe:	8b 5d fc             	mov    -0x4(%ebp),%ebx
  200601:	c9                   	leave
  200602:	c3                   	ret
  200603:	8d b6 00 00 00 00    	lea    0x0(%esi),%esi
  200609:	8d bc 27 00 00 00 00 	lea    0x0(%edi,%eiz,1),%edi

00200610 <terminal_initialize>:
  200610:	55                   	push   %ebp
  200611:	89 e5                	mov    %esp,%ebp
  200613:	83 ec 10             	sub    $0x10,%esp
  200616:	6a 00                	push   $0x0
  200618:	6a 07                	push   $0x7
  20061a:	e8 d1 fc ff ff       	call   2002f0 <vga_entry_color>
  20061f:	5a                   	pop    %edx
  200620:	59                   	pop    %ecx
  200621:	0f b6 c0             	movzbl %al,%eax
  200624:	50                   	push   %eax
  200625:	68 0c f0 20 00       	push   $0x20f00c
  20062a:	e8 71 ff ff ff       	call   2005a0 <init_terminal>
  20062f:	58                   	pop    %eax
  200630:	5a                   	pop    %edx
  200631:	6a 04                	push   $0x4
  200633:	6a 0c                	push   $0xc
  200635:	e8 b6 fc ff ff       	call   2002f0 <vga_entry_color>
  20063a:	59                   	pop    %ecx
  20063b:	5a                   	pop    %edx
  20063c:	0f b6 c0             	movzbl %al,%eax
  20063f:	50                   	push   %eax
  200640:	68 58 0f 21 00       	push   $0x210f58
  200645:	e8 56 ff ff ff       	call   2005a0 <init_terminal>
  20064a:	c7 04 24 0c f0 20 00 	movl   $0x20f00c,(%esp)
  200651:	e8 4a 00 00 00       	call   2006a0 <flush_terminal>
  200656:	c7 05 00 f0 20 00 00 	movl   $0x0,0x20f000
  20065d:	00 00 00 
  200660:	83 c4 10             	add    $0x10,%esp
  200663:	c9                   	leave
  200664:	c3                   	ret
  200665:	66 90                	xchg   %ax,%ax
  200667:	66 90                	xchg   %ax,%ax
  200669:	66 90                	xchg   %ax,%ax
  20066b:	66 90                	xchg   %ax,%ax
  20066d:	66 90                	xchg   %ax,%ax
  20066f:	90                   	nop

00200670 <backup_terminal>:
  200670:	55                   	push   %ebp
  200671:	89 e5                	mov    %esp,%ebp
  200673:	83 ec 0c             	sub    $0xc,%esp
  200676:	8b 45 08             	mov    0x8(%ebp),%eax
  200679:	68 a0 0f 00 00       	push   $0xfa0
  20067e:	ff 35 04 f0 20 00    	push   0x20f004
  200684:	83 c0 0a             	add    $0xa,%eax
  200687:	50                   	push   %eax
  200688:	e8 23 05 00 00       	call   200bb0 <memcpy>
  20068d:	83 c4 10             	add    $0x10,%esp
  200690:	c9                   	leave
  200691:	c3                   	ret
  200692:	8d b4 26 00 00 00 00 	lea    0x0(%esi,%eiz,1),%esi
  200699:	8d bc 27 00 00 00 00 	lea    0x0(%edi,%eiz,1),%edi

002006a0 <flush_terminal>:
  2006a0:	55                   	push   %ebp
  2006a1:	89 e5                	mov    %esp,%ebp
  2006a3:	83 ec 0c             	sub    $0xc,%esp
  2006a6:	8b 45 08             	mov    0x8(%ebp),%eax
  2006a9:	68 a0 0f 00 00       	push   $0xfa0
  2006ae:	a3 08 f0 20 00       	mov    %eax,0x20f008
  2006b3:	83 c0 0a             	add    $0xa,%eax
  2006b6:	50                   	push   %eax
  2006b7:	ff 35 04 f0 20 00    	push   0x20f004
  2006bd:	e8 ee 04 00 00       	call   200bb0 <memcpy>
  2006c2:	a1 08 f0 20 00       	mov    0x20f008,%eax
  2006c7:	5a                   	pop    %edx
  2006c8:	59                   	pop    %ecx
  2006c9:	ff 30                	push   (%eax)
  2006cb:	ff 70 04             	push   0x4(%eax)
  2006ce:	e8 9d f9 ff ff       	call   200070 <update_cursor>
  2006d3:	83 c4 10             	add    $0x10,%esp
  2006d6:	c9                   	leave
  2006d7:	c3                   	ret
  2006d8:	66 90                	xchg   %ax,%ax
  2006da:	66 90                	xchg   %ax,%ax
  2006dc:	66 90                	xchg   %ax,%ax
  2006de:	66 90                	xchg   %ax,%ax

002006e0 <create_descriptor>:
  2006e0:	55                   	push   %ebp
  2006e1:	8b 15 00 e1 20 00    	mov    0x20e100,%edx
  2006e7:	89 e5                	mov    %esp,%ebp
  2006e9:	57                   	push   %edi
  2006ea:	56                   	push   %esi
  2006eb:	8b 7d 08             	mov    0x8(%ebp),%edi
  2006ee:	8b 75 0c             	mov    0xc(%ebp),%esi
  2006f1:	53                   	push   %ebx
  2006f2:	8b 4d 14             	mov    0x14(%ebp),%ecx
  2006f5:	8b 5d 18             	mov    0x18(%ebp),%ebx
  2006f8:	8d 14 fa             	lea    (%edx,%edi,8),%edx
  2006fb:	89 f7                	mov    %esi,%edi
  2006fd:	c1 ef 10             	shr    $0x10,%edi
  200700:	66 89 72 02          	mov    %si,0x2(%edx)
  200704:	89 f8                	mov    %edi,%eax
  200706:	c1 ee 18             	shr    $0x18,%esi
  200709:	88 42 04             	mov    %al,0x4(%edx)
  20070c:	89 f0                	mov    %esi,%eax
  20070e:	83 e3 f0             	and    $0xfffffff0,%ebx
  200711:	88 42 07             	mov    %al,0x7(%edx)
  200714:	0f b7 45 10          	movzwl 0x10(%ebp),%eax
  200718:	88 4a 05             	mov    %cl,0x5(%edx)
  20071b:	66 89 02             	mov    %ax,(%edx)
  20071e:	8b 45 10             	mov    0x10(%ebp),%eax
  200721:	c1 e8 10             	shr    $0x10,%eax
  200724:	83 e0 0f             	and    $0xf,%eax
  200727:	09 d8                	or     %ebx,%eax
  200729:	88 42 06             	mov    %al,0x6(%edx)
  20072c:	5b                   	pop    %ebx
  20072d:	5e                   	pop    %esi
  20072e:	5f                   	pop    %edi
  20072f:	5d                   	pop    %ebp
  200730:	c3                   	ret
  200731:	eb 0d                	jmp    200740 <gdt_init>
  200733:	90                   	nop
  200734:	90                   	nop
  200735:	90                   	nop
  200736:	90                   	nop
  200737:	90                   	nop
  200738:	90                   	nop
  200739:	90                   	nop
  20073a:	90                   	nop
  20073b:	90                   	nop
  20073c:	90                   	nop
  20073d:	90                   	nop
  20073e:	90                   	nop
  20073f:	90                   	nop

00200740 <gdt_init>:
  200740:	55                   	push   %ebp
  200741:	b8 37 00 00 00       	mov    $0x37,%eax
  200746:	89 e5                	mov    %esp,%ebp
  200748:	83 ec 10             	sub    $0x10,%esp
  20074b:	66 a3 a4 2e 21 00    	mov    %ax,0x212ea4
  200751:	a1 00 e1 20 00       	mov    0x20e100,%eax
  200756:	a3 a6 2e 21 00       	mov    %eax,0x212ea6
  20075b:	c7 40 08 ff ff 00 00 	movl   $0xffff,0x8(%eax)
  200762:	c7 00 00 00 00 00    	movl   $0x0,(%eax)
  200768:	c7 40 04 00 00 00 00 	movl   $0x0,0x4(%eax)
  20076f:	c7 40 0c 00 9a cf 00 	movl   $0xcf9a00,0xc(%eax)
  200776:	c7 40 10 ff ff 00 00 	movl   $0xffff,0x10(%eax)
  20077d:	c7 40 14 00 92 cf 00 	movl   $0xcf9200,0x14(%eax)
  200784:	c7 40 18 ff ff 00 00 	movl   $0xffff,0x18(%eax)
  20078b:	c7 40 1c 00 96 cf 00 	movl   $0xcf9600,0x1c(%eax)
  200792:	c7 40 20 ff ff 00 00 	movl   $0xffff,0x20(%eax)
  200799:	c7 40 24 00 fa cf 00 	movl   $0xcffa00,0x24(%eax)
  2007a0:	c7 40 28 ff ff 00 00 	movl   $0xffff,0x28(%eax)
  2007a7:	c7 40 2c 00 f2 cf 00 	movl   $0xcff200,0x2c(%eax)
  2007ae:	c7 40 30 ff ff 00 00 	movl   $0xffff,0x30(%eax)
  2007b5:	c7 40 34 00 f6 cf 00 	movl   $0xcff600,0x34(%eax)
  2007bc:	68 92 00 00 00       	push   $0x92
  2007c1:	68 8b 40 20 00       	push   $0x20408b
  2007c6:	e8 95 05 00 00       	call   200d60 <printf>
  2007cb:	c7 04 24 a4 2e 21 00 	movl   $0x212ea4,(%esp)
  2007d2:	e8 c9 2b 00 00       	call   2033a0 <gdt_flush>
  2007d7:	83 c4 10             	add    $0x10,%esp
  2007da:	c9                   	leave
  2007db:	c3                   	ret
  2007dc:	8d 74 26 00          	lea    0x0(%esi,%eiz,1),%esi

002007e0 <check_gdt_value>:
  2007e0:	55                   	push   %ebp
  2007e1:	89 e5                	mov    %esp,%ebp
  2007e3:	83 ec 10             	sub    $0x10,%esp
  2007e6:	ff 35 00 e1 20 00    	push   0x20e100
  2007ec:	68 c9 40 20 00       	push   $0x2040c9
  2007f1:	e8 6a 05 00 00       	call   200d60 <printf>
  2007f6:	58                   	pop    %eax
  2007f7:	5a                   	pop    %edx
  2007f8:	68 a4 2e 21 00       	push   $0x212ea4
  2007fd:	68 de 40 20 00       	push   $0x2040de
  200802:	e8 59 05 00 00       	call   200d60 <printf>
  200807:	59                   	pop    %ecx
  200808:	58                   	pop    %eax
  200809:	ff 35 a6 2e 21 00    	push   0x212ea6
  20080f:	68 9e 40 20 00       	push   $0x20409e
  200814:	e8 47 05 00 00       	call   200d60 <printf>
  200819:	58                   	pop    %eax
  20081a:	0f b7 05 a4 2e 21 00 	movzwl 0x212ea4,%eax
  200821:	5a                   	pop    %edx
  200822:	50                   	push   %eax
  200823:	68 ad 40 20 00       	push   $0x2040ad
  200828:	e8 33 05 00 00       	call   200d60 <printf>
  20082d:	59                   	pop    %ecx
  20082e:	58                   	pop    %eax
  20082f:	ff 35 00 e1 20 00    	push   0x20e100
  200835:	68 bd 40 20 00       	push   $0x2040bd
  20083a:	e8 21 05 00 00       	call   200d60 <printf>
  20083f:	58                   	pop    %eax
  200840:	5a                   	pop    %edx
  200841:	6a 40                	push   $0x40
  200843:	ff 35 00 e1 20 00    	push   0x20e100
  200849:	e8 a2 0a 00 00       	call   2012f0 <hexdump>
  20084e:	59                   	pop    %ecx
  20084f:	58                   	pop    %eax
  200850:	68 a4 2e 21 00       	push   $0x212ea4
  200855:	68 d2 40 20 00       	push   $0x2040d2
  20085a:	e8 01 05 00 00       	call   200d60 <printf>
  20085f:	58                   	pop    %eax
  200860:	5a                   	pop    %edx
  200861:	6a 40                	push   $0x40
  200863:	68 a4 2e 21 00       	push   $0x212ea4
  200868:	e8 83 0a 00 00       	call   2012f0 <hexdump>
  20086d:	59                   	pop    %ecx
  20086e:	58                   	pop    %eax
  20086f:	a1 00 e1 20 00       	mov    0x20e100,%eax
  200874:	0f b6 40 15          	movzbl 0x15(%eax),%eax
  200878:	50                   	push   %eax
  200879:	68 8b 40 20 00       	push   $0x20408b
  20087e:	e8 dd 04 00 00       	call   200d60 <printf>
  200883:	83 c4 10             	add    $0x10,%esp
  200886:	c9                   	leave
  200887:	c3                   	ret
  200888:	66 90                	xchg   %ax,%ax
  20088a:	66 90                	xchg   %ax,%ax
  20088c:	66 90                	xchg   %ax,%ax
  20088e:	66 90                	xchg   %ax,%ax

00200890 <schedule_signal>:
  200890:	55                   	push   %ebp
  200891:	89 e5                	mov    %esp,%ebp
  200893:	53                   	push   %ebx
  200894:	83 ec 0c             	sub    $0xc,%esp
  200897:	0f b6 5d 08          	movzbl 0x8(%ebp),%ebx
  20089b:	53                   	push   %ebx
  20089c:	68 e8 40 20 00       	push   $0x2040e8
  2008a1:	e8 7a 05 00 00       	call   200e20 <printk>
  2008a6:	e8 35 0c 00 00       	call   2014e0 <print_stack_frame>
  2008ab:	8b 04 9d c0 2e 21 00 	mov    0x212ec0(,%ebx,4),%eax
  2008b2:	83 c4 10             	add    $0x10,%esp
  2008b5:	85 c0                	test   %eax,%eax
  2008b7:	74 07                	je     2008c0 <schedule_signal+0x30>
  2008b9:	8b 5d fc             	mov    -0x4(%ebp),%ebx
  2008bc:	c9                   	leave
  2008bd:	ff e0                	jmp    *%eax
  2008bf:	90                   	nop
  2008c0:	83 ec 08             	sub    $0x8,%esp
  2008c3:	53                   	push   %ebx
  2008c4:	68 f5 40 20 00       	push   $0x2040f5
  2008c9:	e8 52 05 00 00       	call   200e20 <printk>
  2008ce:	e8 0d 0c 00 00       	call   2014e0 <print_stack_frame>
  2008d3:	e8 e8 0b 00 00       	call   2014c0 <clean_registers>
  2008d8:	fa                   	cli
  2008d9:	f4                   	hlt
  2008da:	83 c4 10             	add    $0x10,%esp
  2008dd:	8b 5d fc             	mov    -0x4(%ebp),%ebx
  2008e0:	c9                   	leave
  2008e1:	c3                   	ret
  2008e2:	8d b4 26 00 00 00 00 	lea    0x0(%esi,%eiz,1),%esi
  2008e9:	8d bc 27 00 00 00 00 	lea    0x0(%edi,%eiz,1),%edi

002008f0 <general_handler>:
  2008f0:	55                   	push   %ebp
  2008f1:	89 e5                	mov    %esp,%ebp
  2008f3:	0f b6 45 08          	movzbl 0x8(%ebp),%eax
  2008f7:	89 45 08             	mov    %eax,0x8(%ebp)
  2008fa:	5d                   	pop    %ebp
  2008fb:	eb 93                	jmp    200890 <schedule_signal>
  2008fd:	8d 76 00             	lea    0x0(%esi),%esi

00200900 <check_idt_value>:
  200900:	55                   	push   %ebp
  200901:	89 e5                	mov    %esp,%ebp
  200903:	53                   	push   %ebx
  200904:	bb 00 0f 00 00       	mov    $0xf00,%ebx
  200909:	83 ec 04             	sub    $0x4,%esp
  20090c:	0f b7 43 06          	movzwl 0x6(%ebx),%eax
  200910:	83 ec 08             	sub    $0x8,%esp
  200913:	83 c3 08             	add    $0x8,%ebx
  200916:	50                   	push   %eax
  200917:	0f b6 43 fd          	movzbl -0x3(%ebx),%eax
  20091b:	50                   	push   %eax
  20091c:	0f b6 43 fc          	movzbl -0x4(%ebx),%eax
  200920:	50                   	push   %eax
  200921:	0f b7 43 fa          	movzwl -0x6(%ebx),%eax
  200925:	50                   	push   %eax
  200926:	0f b7 43 f8          	movzwl -0x8(%ebx),%eax
  20092a:	50                   	push   %eax
  20092b:	68 0e 41 20 00       	push   $0x20410e
  200930:	e8 2b 04 00 00       	call   200d60 <printf>
  200935:	83 c4 20             	add    $0x20,%esp
  200938:	81 fb 28 0f 00 00    	cmp    $0xf28,%ebx
  20093e:	75 cc                	jne    20090c <check_idt_value+0xc>
  200940:	8b 5d fc             	mov    -0x4(%ebp),%ebx
  200943:	c9                   	leave
  200944:	c3                   	ret
  200945:	8d 74 26 00          	lea    0x0(%esi,%eiz,1),%esi
  200949:	8d bc 27 00 00 00 00 	lea    0x0(%edi,%eiz,1),%edi

00200950 <idt_initialize>:
  200950:	55                   	push   %ebp
  200951:	b9 f7 07 00 00       	mov    $0x7f7,%ecx
  200956:	89 e5                	mov    %esp,%ebp
  200958:	53                   	push   %ebx
  200959:	83 ec 14             	sub    $0x14,%esp
  20095c:	8b 1d 04 e1 20 00    	mov    0x20e104,%ebx
  200962:	66 89 4d f2          	mov    %cx,-0xe(%ebp)
  200966:	c7 45 f4 00 0f 00 00 	movl   $0xf00,-0xc(%ebp)
  20096d:	b9 f6 35 20 00       	mov    $0x2035f6,%ecx
  200972:	89 d8                	mov    %ebx,%eax
  200974:	8d b6 00 00 00 00    	lea    0x0(%esi),%esi
  20097a:	8d bf 00 00 00 00    	lea    0x0(%edi),%edi
  200980:	8b 11                	mov    (%ecx),%edx
  200982:	83 c1 04             	add    $0x4,%ecx
  200985:	c6 40 05 8e          	movb   $0x8e,0x5(%eax)
  200989:	c6 40 04 00          	movb   $0x0,0x4(%eax)
  20098d:	83 c0 08             	add    $0x8,%eax
  200990:	66 89 50 f8          	mov    %dx,-0x8(%eax)
  200994:	c1 ea 10             	shr    $0x10,%edx
  200997:	66 89 50 fe          	mov    %dx,-0x2(%eax)
  20099b:	ba 08 00 00 00       	mov    $0x8,%edx
  2009a0:	66 89 50 fa          	mov    %dx,-0x6(%eax)
  2009a4:	81 f9 76 36 20 00    	cmp    $0x203676,%ecx
  2009aa:	75 d4                	jne    200980 <idt_initialize+0x30>
  2009ac:	b8 c0 2e 21 00       	mov    $0x212ec0,%eax
  2009b1:	eb 0d                	jmp    2009c0 <idt_initialize+0x70>
  2009b3:	90                   	nop
  2009b4:	90                   	nop
  2009b5:	90                   	nop
  2009b6:	90                   	nop
  2009b7:	90                   	nop
  2009b8:	90                   	nop
  2009b9:	90                   	nop
  2009ba:	90                   	nop
  2009bb:	90                   	nop
  2009bc:	90                   	nop
  2009bd:	90                   	nop
  2009be:	90                   	nop
  2009bf:	90                   	nop
  2009c0:	c7 00 00 00 00 00    	movl   $0x0,(%eax)
  2009c6:	83 c0 04             	add    $0x4,%eax
  2009c9:	3d c0 32 21 00       	cmp    $0x2132c0,%eax
  2009ce:	75 f0                	jne    2009c0 <idt_initialize+0x70>
  2009d0:	8d 83 00 01 00 00    	lea    0x100(%ebx),%eax
  2009d6:	c7 05 44 2f 21 00 10 	movl   $0x200510,0x212f44
  2009dd:	05 20 00 
  2009e0:	b9 76 36 20 00       	mov    $0x203676,%ecx
  2009e5:	bb b6 36 20 00       	mov    $0x2036b6,%ebx
  2009ea:	8d b6 00 00 00 00    	lea    0x0(%esi),%esi
  2009f0:	8b 11                	mov    (%ecx),%edx
  2009f2:	83 c1 04             	add    $0x4,%ecx
  2009f5:	c6 40 05 8e          	movb   $0x8e,0x5(%eax)
  2009f9:	c6 40 04 00          	movb   $0x0,0x4(%eax)
  2009fd:	83 c0 08             	add    $0x8,%eax
  200a00:	66 89 50 f8          	mov    %dx,-0x8(%eax)
  200a04:	c1 ea 10             	shr    $0x10,%edx
  200a07:	66 89 50 fe          	mov    %dx,-0x2(%eax)
  200a0b:	ba 08 00 00 00       	mov    $0x8,%edx
  200a10:	66 89 50 fa          	mov    %dx,-0x6(%eax)
  200a14:	39 cb                	cmp    %ecx,%ebx
  200a16:	75 d8                	jne    2009f0 <idt_initialize+0xa0>
  200a18:	83 ec 08             	sub    $0x8,%esp
  200a1b:	6a 28                	push   $0x28
  200a1d:	6a 20                	push   $0x20
  200a1f:	e8 8c 00 00 00       	call   200ab0 <PIC_remap>
  200a24:	c7 04 24 00 00 00 00 	movl   $0x0,(%esp)
  200a2b:	e8 40 01 00 00       	call   200b70 <IRQ_set_mask>
  200a30:	c7 04 24 01 00 00 00 	movl   $0x1,(%esp)
  200a37:	e8 e4 00 00 00       	call   200b20 <IRQ_clear_mask>
  200a3c:	0f 01 5d f2          	lidtl  -0xe(%ebp)
  200a40:	fb                   	sti
  200a41:	c7 04 24 d8 4d 20 00 	movl   $0x204dd8,(%esp)
  200a48:	e8 53 f8 ff ff       	call   2002a0 <terminal_write_line>
  200a4d:	83 c4 10             	add    $0x10,%esp
  200a50:	8b 5d fc             	mov    -0x4(%ebp),%ebx
  200a53:	c9                   	leave
  200a54:	c3                   	ret
  200a55:	66 90                	xchg   %ax,%ax
  200a57:	66 90                	xchg   %ax,%ax
  200a59:	66 90                	xchg   %ax,%ax
  200a5b:	66 90                	xchg   %ax,%ax
  200a5d:	66 90                	xchg   %ax,%ax
  200a5f:	90                   	nop

00200a60 <outb>:
  200a60:	55                   	push   %ebp
  200a61:	89 e5                	mov    %esp,%ebp
  200a63:	8b 55 08             	mov    0x8(%ebp),%edx
  200a66:	8b 45 0c             	mov    0xc(%ebp),%eax
  200a69:	ee                   	out    %al,(%dx)
  200a6a:	5d                   	pop    %ebp
  200a6b:	c3                   	ret
  200a6c:	8d 74 26 00          	lea    0x0(%esi,%eiz,1),%esi

00200a70 <inb>:
  200a70:	55                   	push   %ebp
  200a71:	89 e5                	mov    %esp,%ebp
  200a73:	8b 55 08             	mov    0x8(%ebp),%edx
  200a76:	ec                   	in     (%dx),%al
  200a77:	5d                   	pop    %ebp
  200a78:	c3                   	ret
  200a79:	8d b4 26 00 00 00 00 	lea    0x0(%esi,%eiz,1),%esi

00200a80 <PIC_sendEOI>:
  200a80:	55                   	push   %ebp
  200a81:	89 e5                	mov    %esp,%ebp
  200a83:	80 7d 08 07          	cmpb   $0x7,0x8(%ebp)
  200a87:	76 07                	jbe    200a90 <PIC_sendEOI+0x10>
  200a89:	b8 20 00 00 00       	mov    $0x20,%eax
  200a8e:	e6 a0                	out    %al,$0xa0
  200a90:	b8 20 00 00 00       	mov    $0x20,%eax
  200a95:	e6 20                	out    %al,$0x20
  200a97:	5d                   	pop    %ebp
  200a98:	c3                   	ret
  200a99:	8d b4 26 00 00 00 00 	lea    0x0(%esi,%eiz,1),%esi

00200aa0 <io_wait>:
  200aa0:	55                   	push   %ebp
  200aa1:	31 c0                	xor    %eax,%eax
  200aa3:	89 e5                	mov    %esp,%ebp
  200aa5:	e6 80                	out    %al,$0x80
  200aa7:	5d                   	pop    %ebp
  200aa8:	c3                   	ret
  200aa9:	8d b4 26 00 00 00 00 	lea    0x0(%esi,%eiz,1),%esi

00200ab0 <PIC_remap>:
  200ab0:	55                   	push   %ebp
  200ab1:	89 e5                	mov    %esp,%ebp
  200ab3:	56                   	push   %esi
  200ab4:	53                   	push   %ebx
  200ab5:	e4 21                	in     $0x21,%al
  200ab7:	89 c6                	mov    %eax,%esi
  200ab9:	e4 a1                	in     $0xa1,%al
  200abb:	b9 11 00 00 00       	mov    $0x11,%ecx
  200ac0:	89 c3                	mov    %eax,%ebx
  200ac2:	89 c8                	mov    %ecx,%eax
  200ac4:	e6 20                	out    %al,$0x20
  200ac6:	31 d2                	xor    %edx,%edx
  200ac8:	89 d0                	mov    %edx,%eax
  200aca:	e6 80                	out    %al,$0x80
  200acc:	89 c8                	mov    %ecx,%eax
  200ace:	e6 20                	out    %al,$0x20
  200ad0:	89 d0                	mov    %edx,%eax
  200ad2:	e6 80                	out    %al,$0x80
  200ad4:	8b 45 08             	mov    0x8(%ebp),%eax
  200ad7:	e6 21                	out    %al,$0x21
  200ad9:	89 d0                	mov    %edx,%eax
  200adb:	e6 80                	out    %al,$0x80
  200add:	8b 45 0c             	mov    0xc(%ebp),%eax
  200ae0:	e6 a1                	out    %al,$0xa1
  200ae2:	89 d0                	mov    %edx,%eax
  200ae4:	e6 80                	out    %al,$0x80
  200ae6:	b8 04 00 00 00       	mov    $0x4,%eax
  200aeb:	e6 21                	out    %al,$0x21
  200aed:	89 d0                	mov    %edx,%eax
  200aef:	e6 80                	out    %al,$0x80
  200af1:	b8 02 00 00 00       	mov    $0x2,%eax
  200af6:	e6 a1                	out    %al,$0xa1
  200af8:	89 d0                	mov    %edx,%eax
  200afa:	e6 80                	out    %al,$0x80
  200afc:	b9 01 00 00 00       	mov    $0x1,%ecx
  200b01:	89 c8                	mov    %ecx,%eax
  200b03:	e6 21                	out    %al,$0x21
  200b05:	89 d0                	mov    %edx,%eax
  200b07:	e6 80                	out    %al,$0x80
  200b09:	89 c8                	mov    %ecx,%eax
  200b0b:	e6 a1                	out    %al,$0xa1
  200b0d:	89 d0                	mov    %edx,%eax
  200b0f:	e6 80                	out    %al,$0x80
  200b11:	89 f0                	mov    %esi,%eax
  200b13:	e6 21                	out    %al,$0x21
  200b15:	89 d8                	mov    %ebx,%eax
  200b17:	e6 a1                	out    %al,$0xa1
  200b19:	5b                   	pop    %ebx
  200b1a:	5e                   	pop    %esi
  200b1b:	5d                   	pop    %ebp
  200b1c:	c3                   	ret
  200b1d:	8d 76 00             	lea    0x0(%esi),%esi

00200b20 <IRQ_clear_mask>:
  200b20:	55                   	push   %ebp
  200b21:	89 e5                	mov    %esp,%ebp
  200b23:	56                   	push   %esi
  200b24:	53                   	push   %ebx
  200b25:	8b 5d 08             	mov    0x8(%ebp),%ebx
  200b28:	83 ec 08             	sub    $0x8,%esp
  200b2b:	0f b6 f3             	movzbl %bl,%esi
  200b2e:	56                   	push   %esi
  200b2f:	68 26 41 20 00       	push   $0x204126
  200b34:	e8 e7 02 00 00       	call   200e20 <printk>
  200b39:	83 c4 10             	add    $0x10,%esp
  200b3c:	80 fb 07             	cmp    $0x7,%bl
  200b3f:	ba 21 00 00 00       	mov    $0x21,%edx
  200b44:	76 0b                	jbe    200b51 <IRQ_clear_mask+0x31>
  200b46:	83 eb 08             	sub    $0x8,%ebx
  200b49:	ba a1 00 00 00       	mov    $0xa1,%edx
  200b4e:	0f b6 f3             	movzbl %bl,%esi
  200b51:	ec                   	in     (%dx),%al
  200b52:	bb fe ff ff ff       	mov    $0xfffffffe,%ebx
  200b57:	89 f1                	mov    %esi,%ecx
  200b59:	d3 c3                	rol    %cl,%ebx
  200b5b:	21 d8                	and    %ebx,%eax
  200b5d:	ee                   	out    %al,(%dx)
  200b5e:	8d 65 f8             	lea    -0x8(%ebp),%esp
  200b61:	5b                   	pop    %ebx
  200b62:	5e                   	pop    %esi
  200b63:	5d                   	pop    %ebp
  200b64:	c3                   	ret
  200b65:	8d 74 26 00          	lea    0x0(%esi,%eiz,1),%esi
  200b69:	8d bc 27 00 00 00 00 	lea    0x0(%edi,%eiz,1),%edi

00200b70 <IRQ_set_mask>:
  200b70:	55                   	push   %ebp
  200b71:	89 e5                	mov    %esp,%ebp
  200b73:	53                   	push   %ebx
  200b74:	8b 45 08             	mov    0x8(%ebp),%eax
  200b77:	3c 07                	cmp    $0x7,%al
  200b79:	76 25                	jbe    200ba0 <IRQ_set_mask+0x30>
  200b7b:	8d 48 f8             	lea    -0x8(%eax),%ecx
  200b7e:	ba a1 00 00 00       	mov    $0xa1,%edx
  200b83:	ec                   	in     (%dx),%al
  200b84:	bb 01 00 00 00       	mov    $0x1,%ebx
  200b89:	d3 e3                	shl    %cl,%ebx
  200b8b:	09 d8                	or     %ebx,%eax
  200b8d:	ee                   	out    %al,(%dx)
  200b8e:	5b                   	pop    %ebx
  200b8f:	5d                   	pop    %ebp
  200b90:	c3                   	ret
  200b91:	eb 0d                	jmp    200ba0 <IRQ_set_mask+0x30>
  200b93:	90                   	nop
  200b94:	90                   	nop
  200b95:	90                   	nop
  200b96:	90                   	nop
  200b97:	90                   	nop
  200b98:	90                   	nop
  200b99:	90                   	nop
  200b9a:	90                   	nop
  200b9b:	90                   	nop
  200b9c:	90                   	nop
  200b9d:	90                   	nop
  200b9e:	90                   	nop
  200b9f:	90                   	nop
  200ba0:	89 c1                	mov    %eax,%ecx
  200ba2:	ba 21 00 00 00       	mov    $0x21,%edx
  200ba7:	eb da                	jmp    200b83 <IRQ_set_mask+0x13>
  200ba9:	66 90                	xchg   %ax,%ax
  200bab:	66 90                	xchg   %ax,%ax
  200bad:	66 90                	xchg   %ax,%ax
  200baf:	90                   	nop

00200bb0 <memcpy>:
  200bb0:	55                   	push   %ebp
  200bb1:	89 e5                	mov    %esp,%ebp
  200bb3:	56                   	push   %esi
  200bb4:	53                   	push   %ebx
  200bb5:	8b 5d 10             	mov    0x10(%ebp),%ebx
  200bb8:	8b 45 08             	mov    0x8(%ebp),%eax
  200bbb:	8b 75 0c             	mov    0xc(%ebp),%esi
  200bbe:	85 db                	test   %ebx,%ebx
  200bc0:	74 1c                	je     200bde <memcpy+0x2e>
  200bc2:	31 d2                	xor    %edx,%edx
  200bc4:	8d b6 00 00 00 00    	lea    0x0(%esi),%esi
  200bca:	8d bf 00 00 00 00    	lea    0x0(%edi),%edi
  200bd0:	0f b6 0c 16          	movzbl (%esi,%edx,1),%ecx
  200bd4:	88 0c 10             	mov    %cl,(%eax,%edx,1)
  200bd7:	83 c2 01             	add    $0x1,%edx
  200bda:	39 d3                	cmp    %edx,%ebx
  200bdc:	75 f2                	jne    200bd0 <memcpy+0x20>
  200bde:	5b                   	pop    %ebx
  200bdf:	5e                   	pop    %esi
  200be0:	5d                   	pop    %ebp
  200be1:	c3                   	ret
  200be2:	66 90                	xchg   %ax,%ax
  200be4:	66 90                	xchg   %ax,%ax
  200be6:	66 90                	xchg   %ax,%ax
  200be8:	66 90                	xchg   %ax,%ax
  200bea:	66 90                	xchg   %ax,%ax
  200bec:	66 90                	xchg   %ax,%ax
  200bee:	66 90                	xchg   %ax,%ax

00200bf0 <memset>:
  200bf0:	55                   	push   %ebp
  200bf1:	89 e5                	mov    %esp,%ebp
  200bf3:	53                   	push   %ebx
  200bf4:	8b 4d 10             	mov    0x10(%ebp),%ecx
  200bf7:	8b 45 08             	mov    0x8(%ebp),%eax
  200bfa:	85 c9                	test   %ecx,%ecx
  200bfc:	74 1b                	je     200c19 <memset+0x29>
  200bfe:	0f b6 5d 0c          	movzbl 0xc(%ebp),%ebx
  200c02:	89 c2                	mov    %eax,%edx
  200c04:	01 c1                	add    %eax,%ecx
  200c06:	8d 76 00             	lea    0x0(%esi),%esi
  200c09:	8d bc 27 00 00 00 00 	lea    0x0(%edi,%eiz,1),%edi
  200c10:	88 1a                	mov    %bl,(%edx)
  200c12:	83 c2 01             	add    $0x1,%edx
  200c15:	39 ca                	cmp    %ecx,%edx
  200c17:	75 f7                	jne    200c10 <memset+0x20>
  200c19:	5b                   	pop    %ebx
  200c1a:	5d                   	pop    %ebp
  200c1b:	c3                   	ret
  200c1c:	66 90                	xchg   %ax,%ax
  200c1e:	66 90                	xchg   %ax,%ax

00200c20 <strlen>:
  200c20:	55                   	push   %ebp
  200c21:	31 c0                	xor    %eax,%eax
  200c23:	89 e5                	mov    %esp,%ebp
  200c25:	8b 55 08             	mov    0x8(%ebp),%edx
  200c28:	80 3a 00             	cmpb   $0x0,(%edx)
  200c2b:	74 0c                	je     200c39 <strlen+0x19>
  200c2d:	8d 76 00             	lea    0x0(%esi),%esi
  200c30:	83 c0 01             	add    $0x1,%eax
  200c33:	80 3c 02 00          	cmpb   $0x0,(%edx,%eax,1)
  200c37:	75 f7                	jne    200c30 <strlen+0x10>
  200c39:	5d                   	pop    %ebp
  200c3a:	c3                   	ret
  200c3b:	66 90                	xchg   %ax,%ax
  200c3d:	66 90                	xchg   %ax,%ax
  200c3f:	90                   	nop

00200c40 <ft_format>:
  200c40:	55                   	push   %ebp
  200c41:	89 e5                	mov    %esp,%ebp
  200c43:	53                   	push   %ebx
  200c44:	83 ec 04             	sub    $0x4,%esp
  200c47:	8b 55 08             	mov    0x8(%ebp),%edx
  200c4a:	8b 5d 0c             	mov    0xc(%ebp),%ebx
  200c4d:	8b 02                	mov    (%edx),%eax
  200c4f:	8d 48 01             	lea    0x1(%eax),%ecx
  200c52:	89 0a                	mov    %ecx,(%edx)
  200c54:	0f b6 40 01          	movzbl 0x1(%eax),%eax
  200c58:	3c 63                	cmp    $0x63,%al
  200c5a:	74 44                	je     200ca0 <ft_format+0x60>
  200c5c:	3c 73                	cmp    $0x73,%al
  200c5e:	74 50                	je     200cb0 <ft_format+0x70>
  200c60:	3c 70                	cmp    $0x70,%al
  200c62:	74 5c                	je     200cc0 <ft_format+0x80>
  200c64:	3c 78                	cmp    $0x78,%al
  200c66:	74 28                	je     200c90 <ft_format+0x50>
  200c68:	3c 58                	cmp    $0x58,%al
  200c6a:	74 64                	je     200cd0 <ft_format+0x90>
  200c6c:	3c 25                	cmp    $0x25,%al
  200c6e:	75 70                	jne    200ce0 <ft_format+0xa0>
  200c70:	83 ec 0c             	sub    $0xc,%esp
  200c73:	6a 25                	push   $0x25
  200c75:	e8 f6 f5 ff ff       	call   200270 <terminal_write_char>
  200c7a:	83 c4 10             	add    $0x10,%esp
  200c7d:	b8 01 00 00 00       	mov    $0x1,%eax
  200c82:	8b 5d fc             	mov    -0x4(%ebp),%ebx
  200c85:	c9                   	leave
  200c86:	c3                   	ret
  200c87:	89 f6                	mov    %esi,%esi
  200c89:	8d bc 27 00 00 00 00 	lea    0x0(%edi,%eiz,1),%edi
  200c90:	89 5d 08             	mov    %ebx,0x8(%ebp)
  200c93:	8b 5d fc             	mov    -0x4(%ebp),%ebx
  200c96:	c9                   	leave
  200c97:	e9 d4 04 00 00       	jmp    201170 <ft_printf_x>
  200c9c:	8d 74 26 00          	lea    0x0(%esi,%eiz,1),%esi
  200ca0:	89 5d 08             	mov    %ebx,0x8(%ebp)
  200ca3:	8b 5d fc             	mov    -0x4(%ebp),%ebx
  200ca6:	c9                   	leave
  200ca7:	e9 14 04 00 00       	jmp    2010c0 <ft_printf_c>
  200cac:	8d 74 26 00          	lea    0x0(%esi,%eiz,1),%esi
  200cb0:	89 5d 08             	mov    %ebx,0x8(%ebp)
  200cb3:	8b 5d fc             	mov    -0x4(%ebp),%ebx
  200cb6:	c9                   	leave
  200cb7:	e9 24 04 00 00       	jmp    2010e0 <ft_printf_s>
  200cbc:	8d 74 26 00          	lea    0x0(%esi,%eiz,1),%esi
  200cc0:	89 5d 08             	mov    %ebx,0x8(%ebp)
  200cc3:	8b 5d fc             	mov    -0x4(%ebp),%ebx
  200cc6:	c9                   	leave
  200cc7:	e9 64 04 00 00       	jmp    201130 <ft_printf_p>
  200ccc:	8d 74 26 00          	lea    0x0(%esi,%eiz,1),%esi
  200cd0:	89 5d 08             	mov    %ebx,0x8(%ebp)
  200cd3:	8b 5d fc             	mov    -0x4(%ebp),%ebx
  200cd6:	c9                   	leave
  200cd7:	e9 c4 04 00 00       	jmp    2011a0 <ft_printf_xx>
  200cdc:	8d 74 26 00          	lea    0x0(%esi,%eiz,1),%esi
  200ce0:	b8 ff ff ff ff       	mov    $0xffffffff,%eax
  200ce5:	eb 9b                	jmp    200c82 <ft_format+0x42>
  200ce7:	89 f6                	mov    %esi,%esi
  200ce9:	8d bc 27 00 00 00 00 	lea    0x0(%edi,%eiz,1),%edi

00200cf0 <printf_internal>:
  200cf0:	55                   	push   %ebp
  200cf1:	89 e5                	mov    %esp,%ebp
  200cf3:	57                   	push   %edi
  200cf4:	56                   	push   %esi
  200cf5:	53                   	push   %ebx
  200cf6:	31 db                	xor    %ebx,%ebx
  200cf8:	83 ec 0c             	sub    $0xc,%esp
  200cfb:	8b 45 08             	mov    0x8(%ebp),%eax
  200cfe:	8b 75 0c             	mov    0xc(%ebp),%esi
  200d01:	0f be 00             	movsbl (%eax),%eax
  200d04:	84 c0                	test   %al,%al
  200d06:	74 48                	je     200d50 <printf_internal+0x60>
  200d08:	8d 7d 08             	lea    0x8(%ebp),%edi
  200d0b:	eb 27                	jmp    200d34 <printf_internal+0x44>
  200d0d:	8d 76 00             	lea    0x0(%esi),%esi
  200d10:	83 ec 0c             	sub    $0xc,%esp
  200d13:	50                   	push   %eax
  200d14:	e8 57 f5 ff ff       	call   200270 <terminal_write_char>
  200d19:	83 c4 10             	add    $0x10,%esp
  200d1c:	b8 01 00 00 00       	mov    $0x1,%eax
  200d21:	01 c3                	add    %eax,%ebx
  200d23:	8b 45 08             	mov    0x8(%ebp),%eax
  200d26:	8d 50 01             	lea    0x1(%eax),%edx
  200d29:	89 55 08             	mov    %edx,0x8(%ebp)
  200d2c:	0f be 40 01          	movsbl 0x1(%eax),%eax
  200d30:	84 c0                	test   %al,%al
  200d32:	74 1c                	je     200d50 <printf_internal+0x60>
  200d34:	3c 25                	cmp    $0x25,%al
  200d36:	75 d8                	jne    200d10 <printf_internal+0x20>
  200d38:	83 ec 08             	sub    $0x8,%esp
  200d3b:	56                   	push   %esi
  200d3c:	57                   	push   %edi
  200d3d:	e8 fe fe ff ff       	call   200c40 <ft_format>
  200d42:	83 c4 10             	add    $0x10,%esp
  200d45:	eb da                	jmp    200d21 <printf_internal+0x31>
  200d47:	89 f6                	mov    %esi,%esi
  200d49:	8d bc 27 00 00 00 00 	lea    0x0(%edi,%eiz,1),%edi
  200d50:	8d 65 f4             	lea    -0xc(%ebp),%esp
  200d53:	89 d8                	mov    %ebx,%eax
  200d55:	5b                   	pop    %ebx
  200d56:	5e                   	pop    %esi
  200d57:	5f                   	pop    %edi
  200d58:	5d                   	pop    %ebp
  200d59:	c3                   	ret
  200d5a:	8d b6 00 00 00 00    	lea    0x0(%esi),%esi

00200d60 <printf>:
  200d60:	55                   	push   %ebp
  200d61:	89 e5                	mov    %esp,%ebp
  200d63:	83 ec 20             	sub    $0x20,%esp
  200d66:	8d 45 0c             	lea    0xc(%ebp),%eax
  200d69:	89 45 f4             	mov    %eax,-0xc(%ebp)
  200d6c:	8d 45 f4             	lea    -0xc(%ebp),%eax
  200d6f:	50                   	push   %eax
  200d70:	ff 75 08             	push   0x8(%ebp)
  200d73:	e8 78 ff ff ff       	call   200cf0 <printf_internal>
  200d78:	c9                   	leave
  200d79:	c3                   	ret
  200d7a:	66 90                	xchg   %ax,%ax
  200d7c:	66 90                	xchg   %ax,%ax
  200d7e:	66 90                	xchg   %ax,%ax

00200d80 <print_uint>:
  200d80:	55                   	push   %ebp
  200d81:	89 d1                	mov    %edx,%ecx
  200d83:	89 e5                	mov    %esp,%ebp
  200d85:	56                   	push   %esi
  200d86:	53                   	push   %ebx
  200d87:	31 db                	xor    %ebx,%ebx
  200d89:	83 ec 40             	sub    $0x40,%esp
  200d8c:	85 c0                	test   %eax,%eax
  200d8e:	c7 45 c7 30 31 32 33 	movl   $0x33323130,-0x39(%ebp)
  200d95:	c7 45 cb 34 35 36 37 	movl   $0x37363534,-0x35(%ebp)
  200d9c:	c7 45 cf 38 39 41 42 	movl   $0x42413938,-0x31(%ebp)
  200da3:	c7 45 d3 43 44 45 46 	movl   $0x46454443,-0x2d(%ebp)
  200daa:	c6 45 d7 00          	movb   $0x0,-0x29(%ebp)
  200dae:	75 12                	jne    200dc2 <print_uint+0x42>
  200db0:	eb 4e                	jmp    200e00 <print_uint+0x80>
  200db2:	8d b4 26 00 00 00 00 	lea    0x0(%esi,%eiz,1),%esi
  200db9:	8d bc 27 00 00 00 00 	lea    0x0(%edi,%eiz,1),%edi
  200dc0:	89 f3                	mov    %esi,%ebx
  200dc2:	31 d2                	xor    %edx,%edx
  200dc4:	8d 73 01             	lea    0x1(%ebx),%esi
  200dc7:	f7 f1                	div    %ecx
  200dc9:	0f be 54 15 c7       	movsbl -0x39(%ebp,%edx,1),%edx
  200dce:	85 c0                	test   %eax,%eax
  200dd0:	88 54 35 d7          	mov    %dl,-0x29(%ebp,%esi,1)
  200dd4:	75 ea                	jne    200dc0 <print_uint+0x40>
  200dd6:	eb 0d                	jmp    200de5 <print_uint+0x65>
  200dd8:	90                   	nop
  200dd9:	8d b4 26 00 00 00 00 	lea    0x0(%esi,%eiz,1),%esi
  200de0:	0f be 54 1d d8       	movsbl -0x28(%ebp,%ebx,1),%edx
  200de5:	83 ec 0c             	sub    $0xc,%esp
  200de8:	83 eb 01             	sub    $0x1,%ebx
  200deb:	52                   	push   %edx
  200dec:	e8 7f f4 ff ff       	call   200270 <terminal_write_char>
  200df1:	83 c4 10             	add    $0x10,%esp
  200df4:	83 fb ff             	cmp    $0xffffffff,%ebx
  200df7:	75 e7                	jne    200de0 <print_uint+0x60>
  200df9:	8d 65 f8             	lea    -0x8(%ebp),%esp
  200dfc:	5b                   	pop    %ebx
  200dfd:	5e                   	pop    %esi
  200dfe:	5d                   	pop    %ebp
  200dff:	c3                   	ret
  200e00:	83 ec 0c             	sub    $0xc,%esp
  200e03:	6a 30                	push   $0x30
  200e05:	e8 66 f4 ff ff       	call   200270 <terminal_write_char>
  200e0a:	83 c4 10             	add    $0x10,%esp
  200e0d:	8d 65 f8             	lea    -0x8(%ebp),%esp
  200e10:	5b                   	pop    %ebx
  200e11:	5e                   	pop    %esi
  200e12:	5d                   	pop    %ebp
  200e13:	c3                   	ret
  200e14:	8d b6 00 00 00 00    	lea    0x0(%esi),%esi
  200e1a:	8d bf 00 00 00 00    	lea    0x0(%edi),%edi

00200e20 <printk>:
  200e20:	55                   	push   %ebp
  200e21:	89 e5                	mov    %esp,%ebp
  200e23:	57                   	push   %edi
  200e24:	56                   	push   %esi
  200e25:	53                   	push   %ebx
  200e26:	8d 45 0c             	lea    0xc(%ebp),%eax
  200e29:	83 ec 4c             	sub    $0x4c,%esp
  200e2c:	8b 5d 08             	mov    0x8(%ebp),%ebx
  200e2f:	89 45 b4             	mov    %eax,-0x4c(%ebp)
  200e32:	0f be 03             	movsbl (%ebx),%eax
  200e35:	84 c0                	test   %al,%al
  200e37:	74 51                	je     200e8a <printk+0x6a>
  200e39:	3c 25                	cmp    $0x25,%al
  200e3b:	75 63                	jne    200ea0 <printk+0x80>
  200e3d:	0f b6 43 01          	movzbl 0x1(%ebx),%eax
  200e41:	3c 70                	cmp    $0x70,%al
  200e43:	0f 84 b7 00 00 00    	je     200f00 <printk+0xe0>
  200e49:	7f 75                	jg     200ec0 <printk+0xa0>
  200e4b:	3c 63                	cmp    $0x63,%al
  200e4d:	0f 84 5d 01 00 00    	je     200fb0 <printk+0x190>
  200e53:	3c 64                	cmp    $0x64,%al
  200e55:	0f 84 c5 00 00 00    	je     200f20 <printk+0x100>
  200e5b:	3c 25                	cmp    $0x25,%al
  200e5d:	0f 84 8d 00 00 00    	je     200ef0 <printk+0xd0>
  200e63:	83 ec 0c             	sub    $0xc,%esp
  200e66:	6a 25                	push   $0x25
  200e68:	e8 03 f4 ff ff       	call   200270 <terminal_write_char>
  200e6d:	0f be 43 01          	movsbl 0x1(%ebx),%eax
  200e71:	89 04 24             	mov    %eax,(%esp)
  200e74:	e8 f7 f3 ff ff       	call   200270 <terminal_write_char>
  200e79:	83 c4 10             	add    $0x10,%esp
  200e7c:	8d 74 26 00          	lea    0x0(%esi,%eiz,1),%esi
  200e80:	83 c3 02             	add    $0x2,%ebx
  200e83:	0f be 03             	movsbl (%ebx),%eax
  200e86:	84 c0                	test   %al,%al
  200e88:	75 af                	jne    200e39 <printk+0x19>
  200e8a:	8d 65 f4             	lea    -0xc(%ebp),%esp
  200e8d:	5b                   	pop    %ebx
  200e8e:	5e                   	pop    %esi
  200e8f:	5f                   	pop    %edi
  200e90:	5d                   	pop    %ebp
  200e91:	c3                   	ret
  200e92:	8d b4 26 00 00 00 00 	lea    0x0(%esi,%eiz,1),%esi
  200e99:	8d bc 27 00 00 00 00 	lea    0x0(%edi,%eiz,1),%edi
  200ea0:	83 ec 0c             	sub    $0xc,%esp
  200ea3:	83 c3 01             	add    $0x1,%ebx
  200ea6:	50                   	push   %eax
  200ea7:	e8 c4 f3 ff ff       	call   200270 <terminal_write_char>
  200eac:	83 c4 10             	add    $0x10,%esp
  200eaf:	eb 81                	jmp    200e32 <printk+0x12>
  200eb1:	eb 0d                	jmp    200ec0 <printk+0xa0>
  200eb3:	90                   	nop
  200eb4:	90                   	nop
  200eb5:	90                   	nop
  200eb6:	90                   	nop
  200eb7:	90                   	nop
  200eb8:	90                   	nop
  200eb9:	90                   	nop
  200eba:	90                   	nop
  200ebb:	90                   	nop
  200ebc:	90                   	nop
  200ebd:	90                   	nop
  200ebe:	90                   	nop
  200ebf:	90                   	nop
  200ec0:	3c 75                	cmp    $0x75,%al
  200ec2:	0f 84 28 01 00 00    	je     200ff0 <printk+0x1d0>
  200ec8:	3c 78                	cmp    $0x78,%al
  200eca:	0f 84 00 01 00 00    	je     200fd0 <printk+0x1b0>
  200ed0:	3c 73                	cmp    $0x73,%al
  200ed2:	75 8f                	jne    200e63 <printk+0x43>
  200ed4:	8b 4d b4             	mov    -0x4c(%ebp),%ecx
  200ed7:	83 ec 0c             	sub    $0xc,%esp
  200eda:	89 c8                	mov    %ecx,%eax
  200edc:	83 c1 04             	add    $0x4,%ecx
  200edf:	ff 30                	push   (%eax)
  200ee1:	89 4d b4             	mov    %ecx,-0x4c(%ebp)
  200ee4:	e8 b7 f3 ff ff       	call   2002a0 <terminal_write_line>
  200ee9:	83 c4 10             	add    $0x10,%esp
  200eec:	eb 92                	jmp    200e80 <printk+0x60>
  200eee:	66 90                	xchg   %ax,%ax
  200ef0:	83 ec 0c             	sub    $0xc,%esp
  200ef3:	6a 25                	push   $0x25
  200ef5:	e8 76 f3 ff ff       	call   200270 <terminal_write_char>
  200efa:	83 c4 10             	add    $0x10,%esp
  200efd:	eb 81                	jmp    200e80 <printk+0x60>
  200eff:	90                   	nop
  200f00:	8b 7d b4             	mov    -0x4c(%ebp),%edi
  200f03:	ba 10 00 00 00       	mov    $0x10,%edx
  200f08:	89 f8                	mov    %edi,%eax
  200f0a:	83 c7 04             	add    $0x4,%edi
  200f0d:	89 7d b4             	mov    %edi,-0x4c(%ebp)
  200f10:	8b 00                	mov    (%eax),%eax
  200f12:	e8 69 fe ff ff       	call   200d80 <print_uint>
  200f17:	e9 64 ff ff ff       	jmp    200e80 <printk+0x60>
  200f1c:	8d 74 26 00          	lea    0x0(%esi,%eiz,1),%esi
  200f20:	8b 4d b4             	mov    -0x4c(%ebp),%ecx
  200f23:	c7 45 bd 30 31 32 33 	movl   $0x33323130,-0x43(%ebp)
  200f2a:	c7 45 c1 34 35 36 37 	movl   $0x37363534,-0x3f(%ebp)
  200f31:	c6 45 c7 00          	movb   $0x0,-0x39(%ebp)
  200f35:	89 c8                	mov    %ecx,%eax
  200f37:	83 c1 04             	add    $0x4,%ecx
  200f3a:	8b 30                	mov    (%eax),%esi
  200f3c:	b8 38 39 00 00       	mov    $0x3938,%eax
  200f41:	89 4d b4             	mov    %ecx,-0x4c(%ebp)
  200f44:	66 89 45 c5          	mov    %ax,-0x3b(%ebp)
  200f48:	85 f6                	test   %esi,%esi
  200f4a:	0f 84 e0 00 00 00    	je     201030 <printk+0x210>
  200f50:	85 f6                	test   %esi,%esi
  200f52:	0f 88 b8 00 00 00    	js     201010 <printk+0x1f0>
  200f58:	31 ff                	xor    %edi,%edi
  200f5a:	eb 06                	jmp    200f62 <printk+0x142>
  200f5c:	8d 74 26 00          	lea    0x0(%esi,%eiz,1),%esi
  200f60:	89 cf                	mov    %ecx,%edi
  200f62:	b8 cd cc cc cc       	mov    $0xcccccccd,%eax
  200f67:	8d 4f 01             	lea    0x1(%edi),%ecx
  200f6a:	f7 e6                	mul    %esi
  200f6c:	c1 ea 03             	shr    $0x3,%edx
  200f6f:	8d 04 92             	lea    (%edx,%edx,4),%eax
  200f72:	01 c0                	add    %eax,%eax
  200f74:	29 c6                	sub    %eax,%esi
  200f76:	85 d2                	test   %edx,%edx
  200f78:	0f be 44 35 bd       	movsbl -0x43(%ebp,%esi,1),%eax
  200f7d:	89 d6                	mov    %edx,%esi
  200f7f:	88 44 0d c7          	mov    %al,-0x39(%ebp,%ecx,1)
  200f83:	75 db                	jne    200f60 <printk+0x140>
  200f85:	eb 0e                	jmp    200f95 <printk+0x175>
  200f87:	89 f6                	mov    %esi,%esi
  200f89:	8d bc 27 00 00 00 00 	lea    0x0(%edi,%eiz,1),%edi
  200f90:	0f be 44 3d c8       	movsbl -0x38(%ebp,%edi,1),%eax
  200f95:	83 ec 0c             	sub    $0xc,%esp
  200f98:	83 ef 01             	sub    $0x1,%edi
  200f9b:	50                   	push   %eax
  200f9c:	e8 cf f2 ff ff       	call   200270 <terminal_write_char>
  200fa1:	83 c4 10             	add    $0x10,%esp
  200fa4:	83 ff ff             	cmp    $0xffffffff,%edi
  200fa7:	75 e7                	jne    200f90 <printk+0x170>
  200fa9:	e9 d2 fe ff ff       	jmp    200e80 <printk+0x60>
  200fae:	66 90                	xchg   %ax,%ax
  200fb0:	8b 55 b4             	mov    -0x4c(%ebp),%edx
  200fb3:	83 ec 0c             	sub    $0xc,%esp
  200fb6:	89 d0                	mov    %edx,%eax
  200fb8:	83 c2 04             	add    $0x4,%edx
  200fbb:	0f be 00             	movsbl (%eax),%eax
  200fbe:	89 55 b4             	mov    %edx,-0x4c(%ebp)
  200fc1:	50                   	push   %eax
  200fc2:	e8 a9 f2 ff ff       	call   200270 <terminal_write_char>
  200fc7:	83 c4 10             	add    $0x10,%esp
  200fca:	e9 b1 fe ff ff       	jmp    200e80 <printk+0x60>
  200fcf:	90                   	nop
  200fd0:	8b 4d b4             	mov    -0x4c(%ebp),%ecx
  200fd3:	ba 10 00 00 00       	mov    $0x10,%edx
  200fd8:	89 c8                	mov    %ecx,%eax
  200fda:	83 c1 04             	add    $0x4,%ecx
  200fdd:	89 4d b4             	mov    %ecx,-0x4c(%ebp)
  200fe0:	8b 00                	mov    (%eax),%eax
  200fe2:	e8 99 fd ff ff       	call   200d80 <print_uint>
  200fe7:	e9 94 fe ff ff       	jmp    200e80 <printk+0x60>
  200fec:	8d 74 26 00          	lea    0x0(%esi,%eiz,1),%esi
  200ff0:	8b 4d b4             	mov    -0x4c(%ebp),%ecx
  200ff3:	ba 0a 00 00 00       	mov    $0xa,%edx
  200ff8:	89 c8                	mov    %ecx,%eax
  200ffa:	83 c1 04             	add    $0x4,%ecx
  200ffd:	89 4d b4             	mov    %ecx,-0x4c(%ebp)
  201000:	8b 00                	mov    (%eax),%eax
  201002:	e8 79 fd ff ff       	call   200d80 <print_uint>
  201007:	e9 74 fe ff ff       	jmp    200e80 <printk+0x60>
  20100c:	8d 74 26 00          	lea    0x0(%esi,%eiz,1),%esi
  201010:	83 ec 0c             	sub    $0xc,%esp
  201013:	f7 de                	neg    %esi
  201015:	6a 2d                	push   $0x2d
  201017:	e8 54 f2 ff ff       	call   200270 <terminal_write_char>
  20101c:	83 c4 10             	add    $0x10,%esp
  20101f:	e9 34 ff ff ff       	jmp    200f58 <printk+0x138>
  201024:	8d b6 00 00 00 00    	lea    0x0(%esi),%esi
  20102a:	8d bf 00 00 00 00    	lea    0x0(%edi),%edi
  201030:	83 ec 0c             	sub    $0xc,%esp
  201033:	6a 30                	push   $0x30
  201035:	e8 36 f2 ff ff       	call   200270 <terminal_write_char>
  20103a:	83 c4 10             	add    $0x10,%esp
  20103d:	e9 3e fe ff ff       	jmp    200e80 <printk+0x60>
  201042:	66 90                	xchg   %ax,%ax
  201044:	66 90                	xchg   %ax,%ax
  201046:	66 90                	xchg   %ax,%ax
  201048:	66 90                	xchg   %ax,%ax
  20104a:	66 90                	xchg   %ax,%ax
  20104c:	66 90                	xchg   %ax,%ax
  20104e:	66 90                	xchg   %ax,%ax

00201050 <ft_write_hex>:
  201050:	55                   	push   %ebp
  201051:	89 e5                	mov    %esp,%ebp
  201053:	57                   	push   %edi
  201054:	56                   	push   %esi
  201055:	53                   	push   %ebx
  201056:	83 ec 0c             	sub    $0xc,%esp
  201059:	8b 7d 0c             	mov    0xc(%ebp),%edi
  20105c:	8b 75 08             	mov    0x8(%ebp),%esi
  20105f:	8b 5d 10             	mov    0x10(%ebp),%ebx
  201062:	c7 05 c0 32 21 00 00 	movl   $0x0,0x2132c0
  201069:	00 00 00 
  20106c:	83 ff 00             	cmp    $0x0,%edi
  20106f:	76 3f                	jbe    2010b0 <ft_write_hex+0x60>
  201071:	89 f0                	mov    %esi,%eax
  201073:	89 fa                	mov    %edi,%edx
  201075:	83 ec 04             	sub    $0x4,%esp
  201078:	0f ac f8 04          	shrd   $0x4,%edi,%eax
  20107c:	c1 ea 04             	shr    $0x4,%edx
  20107f:	53                   	push   %ebx
  201080:	52                   	push   %edx
  201081:	50                   	push   %eax
  201082:	e8 c9 ff ff ff       	call   201050 <ft_write_hex>
  201087:	83 c4 10             	add    $0x10,%esp
  20108a:	83 e6 0f             	and    $0xf,%esi
  20108d:	83 ec 0c             	sub    $0xc,%esp
  201090:	0f be 04 33          	movsbl (%ebx,%esi,1),%eax
  201094:	50                   	push   %eax
  201095:	e8 d6 f1 ff ff       	call   200270 <terminal_write_char>
  20109a:	a1 c0 32 21 00       	mov    0x2132c0,%eax
  20109f:	83 c0 01             	add    $0x1,%eax
  2010a2:	a3 c0 32 21 00       	mov    %eax,0x2132c0
  2010a7:	8d 65 f4             	lea    -0xc(%ebp),%esp
  2010aa:	5b                   	pop    %ebx
  2010ab:	5e                   	pop    %esi
  2010ac:	5f                   	pop    %edi
  2010ad:	5d                   	pop    %ebp
  2010ae:	c3                   	ret
  2010af:	90                   	nop
  2010b0:	83 fe 0f             	cmp    $0xf,%esi
  2010b3:	76 d5                	jbe    20108a <ft_write_hex+0x3a>
  2010b5:	eb ba                	jmp    201071 <ft_write_hex+0x21>
  2010b7:	89 f6                	mov    %esi,%esi
  2010b9:	8d bc 27 00 00 00 00 	lea    0x0(%edi,%eiz,1),%edi

002010c0 <ft_printf_c>:
  2010c0:	55                   	push   %ebp
  2010c1:	89 e5                	mov    %esp,%ebp
  2010c3:	83 ec 14             	sub    $0x14,%esp
  2010c6:	8b 55 08             	mov    0x8(%ebp),%edx
  2010c9:	8b 02                	mov    (%edx),%eax
  2010cb:	8d 48 04             	lea    0x4(%eax),%ecx
  2010ce:	0f be 00             	movsbl (%eax),%eax
  2010d1:	89 0a                	mov    %ecx,(%edx)
  2010d3:	50                   	push   %eax
  2010d4:	e8 97 f1 ff ff       	call   200270 <terminal_write_char>
  2010d9:	b8 01 00 00 00       	mov    $0x1,%eax
  2010de:	c9                   	leave
  2010df:	c3                   	ret

002010e0 <ft_printf_s>:
  2010e0:	55                   	push   %ebp
  2010e1:	89 e5                	mov    %esp,%ebp
  2010e3:	53                   	push   %ebx
  2010e4:	83 ec 04             	sub    $0x4,%esp
  2010e7:	8b 55 08             	mov    0x8(%ebp),%edx
  2010ea:	8b 02                	mov    (%edx),%eax
  2010ec:	8d 48 04             	lea    0x4(%eax),%ecx
  2010ef:	89 0a                	mov    %ecx,(%edx)
  2010f1:	8b 18                	mov    (%eax),%ebx
  2010f3:	85 db                	test   %ebx,%ebx
  2010f5:	74 19                	je     201110 <ft_printf_s+0x30>
  2010f7:	83 ec 0c             	sub    $0xc,%esp
  2010fa:	53                   	push   %ebx
  2010fb:	e8 a0 f1 ff ff       	call   2002a0 <terminal_write_line>
  201100:	89 5d 08             	mov    %ebx,0x8(%ebp)
  201103:	83 c4 10             	add    $0x10,%esp
  201106:	8b 5d fc             	mov    -0x4(%ebp),%ebx
  201109:	c9                   	leave
  20110a:	e9 11 fb ff ff       	jmp    200c20 <strlen>
  20110f:	90                   	nop
  201110:	83 ec 0c             	sub    $0xc,%esp
  201113:	68 41 41 20 00       	push   $0x204141
  201118:	e8 83 f1 ff ff       	call   2002a0 <terminal_write_line>
  20111d:	83 c4 10             	add    $0x10,%esp
  201120:	b8 06 00 00 00       	mov    $0x6,%eax
  201125:	8b 5d fc             	mov    -0x4(%ebp),%ebx
  201128:	c9                   	leave
  201129:	c3                   	ret
  20112a:	8d b6 00 00 00 00    	lea    0x0(%esi),%esi

00201130 <ft_printf_p>:
  201130:	55                   	push   %ebp
  201131:	89 e5                	mov    %esp,%ebp
  201133:	53                   	push   %ebx
  201134:	83 ec 10             	sub    $0x10,%esp
  201137:	8b 55 08             	mov    0x8(%ebp),%edx
  20113a:	8b 02                	mov    (%edx),%eax
  20113c:	8d 48 04             	lea    0x4(%eax),%ecx
  20113f:	89 0a                	mov    %ecx,(%edx)
  201141:	8b 18                	mov    (%eax),%ebx
  201143:	6a 30                	push   $0x30
  201145:	e8 26 f1 ff ff       	call   200270 <terminal_write_char>
  20114a:	c7 04 24 78 00 00 00 	movl   $0x78,(%esp)
  201151:	e8 1a f1 ff ff       	call   200270 <terminal_write_char>
  201156:	83 c4 0c             	add    $0xc,%esp
  201159:	31 d2                	xor    %edx,%edx
  20115b:	68 48 41 20 00       	push   $0x204148
  201160:	52                   	push   %edx
  201161:	53                   	push   %ebx
  201162:	e8 e9 fe ff ff       	call   201050 <ft_write_hex>
  201167:	8b 5d fc             	mov    -0x4(%ebp),%ebx
  20116a:	83 c0 02             	add    $0x2,%eax
  20116d:	c9                   	leave
  20116e:	c3                   	ret
  20116f:	90                   	nop

00201170 <ft_printf_x>:
  201170:	55                   	push   %ebp
  201171:	89 e5                	mov    %esp,%ebp
  201173:	83 ec 0c             	sub    $0xc,%esp
  201176:	8b 55 08             	mov    0x8(%ebp),%edx
  201179:	8b 02                	mov    (%edx),%eax
  20117b:	8d 48 04             	lea    0x4(%eax),%ecx
  20117e:	89 0a                	mov    %ecx,(%edx)
  201180:	68 48 41 20 00       	push   $0x204148
  201185:	31 d2                	xor    %edx,%edx
  201187:	8b 00                	mov    (%eax),%eax
  201189:	52                   	push   %edx
  20118a:	50                   	push   %eax
  20118b:	e8 c0 fe ff ff       	call   201050 <ft_write_hex>
  201190:	c9                   	leave
  201191:	c3                   	ret
  201192:	8d b4 26 00 00 00 00 	lea    0x0(%esi,%eiz,1),%esi
  201199:	8d bc 27 00 00 00 00 	lea    0x0(%edi,%eiz,1),%edi

002011a0 <ft_printf_xx>:
  2011a0:	55                   	push   %ebp
  2011a1:	89 e5                	mov    %esp,%ebp
  2011a3:	83 ec 0c             	sub    $0xc,%esp
  2011a6:	8b 55 08             	mov    0x8(%ebp),%edx
  2011a9:	8b 02                	mov    (%edx),%eax
  2011ab:	8d 48 04             	lea    0x4(%eax),%ecx
  2011ae:	89 0a                	mov    %ecx,(%edx)
  2011b0:	68 59 41 20 00       	push   $0x204159
  2011b5:	31 d2                	xor    %edx,%edx
  2011b7:	8b 00                	mov    (%eax),%eax
  2011b9:	52                   	push   %edx
  2011ba:	50                   	push   %eax
  2011bb:	e8 90 fe ff ff       	call   201050 <ft_write_hex>
  2011c0:	c9                   	leave
  2011c1:	c3                   	ret
  2011c2:	66 90                	xchg   %ax,%ax
  2011c4:	66 90                	xchg   %ax,%ax
  2011c6:	66 90                	xchg   %ax,%ax
  2011c8:	66 90                	xchg   %ax,%ax
  2011ca:	66 90                	xchg   %ax,%ax
  2011cc:	66 90                	xchg   %ax,%ax
  2011ce:	66 90                	xchg   %ax,%ax

002011d0 <hex_to_str>:
  2011d0:	55                   	push   %ebp
  2011d1:	89 e5                	mov    %esp,%ebp
  2011d3:	8b 45 08             	mov    0x8(%ebp),%eax
  2011d6:	8b 55 0c             	mov    0xc(%ebp),%edx
  2011d9:	89 c1                	mov    %eax,%ecx
  2011db:	83 e0 0f             	and    $0xf,%eax
  2011de:	c6 42 02 00          	movb   $0x0,0x2(%edx)
  2011e2:	c1 e9 04             	shr    $0x4,%ecx
  2011e5:	0f b6 80 59 41 20 00 	movzbl 0x204159(%eax),%eax
  2011ec:	83 e1 0f             	and    $0xf,%ecx
  2011ef:	0f b6 89 59 41 20 00 	movzbl 0x204159(%ecx),%ecx
  2011f6:	88 42 01             	mov    %al,0x1(%edx)
  2011f9:	88 0a                	mov    %cl,(%edx)
  2011fb:	5d                   	pop    %ebp
  2011fc:	c3                   	ret
  2011fd:	8d 76 00             	lea    0x0(%esi),%esi

00201200 <print_hex_line>:
  201200:	55                   	push   %ebp
  201201:	89 e5                	mov    %esp,%ebp
  201203:	57                   	push   %edi
  201204:	56                   	push   %esi
  201205:	53                   	push   %ebx
  201206:	31 ff                	xor    %edi,%edi
  201208:	8d 75 e5             	lea    -0x1b(%ebp),%esi
  20120b:	83 ec 1c             	sub    $0x1c,%esp
  20120e:	8b 5d 0c             	mov    0xc(%ebp),%ebx
  201211:	eb 51                	jmp    201264 <print_hex_line+0x64>
  201213:	8d b6 00 00 00 00    	lea    0x0(%esi),%esi
  201219:	8d bc 27 00 00 00 00 	lea    0x0(%edi,%eiz,1),%edi
  201220:	8b 45 08             	mov    0x8(%ebp),%eax
  201223:	83 ec 08             	sub    $0x8,%esp
  201226:	83 c7 01             	add    $0x1,%edi
  201229:	c6 45 e7 00          	movb   $0x0,-0x19(%ebp)
  20122d:	0f b6 44 07 ff       	movzbl -0x1(%edi,%eax,1),%eax
  201232:	56                   	push   %esi
  201233:	68 6a 41 20 00       	push   $0x20416a
  201238:	89 c1                	mov    %eax,%ecx
  20123a:	83 e0 0f             	and    $0xf,%eax
  20123d:	c1 e9 04             	shr    $0x4,%ecx
  201240:	0f b6 80 59 41 20 00 	movzbl 0x204159(%eax),%eax
  201247:	83 e1 0f             	and    $0xf,%ecx
  20124a:	0f b6 89 59 41 20 00 	movzbl 0x204159(%ecx),%ecx
  201251:	88 45 e6             	mov    %al,-0x1a(%ebp)
  201254:	88 4d e5             	mov    %cl,-0x1b(%ebp)
  201257:	e8 04 fb ff ff       	call   200d60 <printf>
  20125c:	83 c4 10             	add    $0x10,%esp
  20125f:	83 ff 10             	cmp    $0x10,%edi
  201262:	74 1d                	je     201281 <print_hex_line+0x81>
  201264:	39 fb                	cmp    %edi,%ebx
  201266:	7f b8                	jg     201220 <print_hex_line+0x20>
  201268:	83 ec 08             	sub    $0x8,%esp
  20126b:	83 c7 01             	add    $0x1,%edi
  20126e:	56                   	push   %esi
  20126f:	68 6e 41 20 00       	push   $0x20416e
  201274:	e8 e7 fa ff ff       	call   200d60 <printf>
  201279:	83 c4 10             	add    $0x10,%esp
  20127c:	83 ff 10             	cmp    $0x10,%edi
  20127f:	75 e3                	jne    201264 <print_hex_line+0x64>
  201281:	8d 65 f4             	lea    -0xc(%ebp),%esp
  201284:	5b                   	pop    %ebx
  201285:	5e                   	pop    %esi
  201286:	5f                   	pop    %edi
  201287:	5d                   	pop    %ebp
  201288:	c3                   	ret
  201289:	8d b4 26 00 00 00 00 	lea    0x0(%esi,%eiz,1),%esi

00201290 <print_ascii_line>:
  201290:	55                   	push   %ebp
  201291:	89 e5                	mov    %esp,%ebp
  201293:	56                   	push   %esi
  201294:	53                   	push   %ebx
  201295:	8b 75 0c             	mov    0xc(%ebp),%esi
  201298:	8b 5d 08             	mov    0x8(%ebp),%ebx
  20129b:	85 f6                	test   %esi,%esi
  20129d:	7e 49                	jle    2012e8 <print_ascii_line+0x58>
  20129f:	01 de                	add    %ebx,%esi
  2012a1:	eb 26                	jmp    2012c9 <print_ascii_line+0x39>
  2012a3:	8d b6 00 00 00 00    	lea    0x0(%esi),%esi
  2012a9:	8d bc 27 00 00 00 00 	lea    0x0(%edi,%eiz,1),%edi
  2012b0:	83 ec 08             	sub    $0x8,%esp
  2012b3:	83 c3 01             	add    $0x1,%ebx
  2012b6:	6a 2e                	push   $0x2e
  2012b8:	68 72 41 20 00       	push   $0x204172
  2012bd:	e8 9e fa ff ff       	call   200d60 <printf>
  2012c2:	83 c4 10             	add    $0x10,%esp
  2012c5:	39 de                	cmp    %ebx,%esi
  2012c7:	74 1f                	je     2012e8 <print_ascii_line+0x58>
  2012c9:	0f be 03             	movsbl (%ebx),%eax
  2012cc:	3c 20                	cmp    $0x20,%al
  2012ce:	7e e0                	jle    2012b0 <print_ascii_line+0x20>
  2012d0:	83 ec 08             	sub    $0x8,%esp
  2012d3:	83 c3 01             	add    $0x1,%ebx
  2012d6:	50                   	push   %eax
  2012d7:	68 72 41 20 00       	push   $0x204172
  2012dc:	e8 7f fa ff ff       	call   200d60 <printf>
  2012e1:	83 c4 10             	add    $0x10,%esp
  2012e4:	39 de                	cmp    %ebx,%esi
  2012e6:	75 e1                	jne    2012c9 <print_ascii_line+0x39>
  2012e8:	8d 65 f8             	lea    -0x8(%ebp),%esp
  2012eb:	5b                   	pop    %ebx
  2012ec:	5e                   	pop    %esi
  2012ed:	5d                   	pop    %ebp
  2012ee:	c3                   	ret
  2012ef:	90                   	nop

002012f0 <hexdump>:
  2012f0:	55                   	push   %ebp
  2012f1:	89 e5                	mov    %esp,%ebp
  2012f3:	57                   	push   %edi
  2012f4:	56                   	push   %esi
  2012f5:	53                   	push   %ebx
  2012f6:	83 ec 1c             	sub    $0x1c,%esp
  2012f9:	8b 45 0c             	mov    0xc(%ebp),%eax
  2012fc:	8b 75 08             	mov    0x8(%ebp),%esi
  2012ff:	85 c0                	test   %eax,%eax
  201301:	0f 8e a9 00 00 00    	jle    2013b0 <hexdump+0xc0>
  201307:	89 c2                	mov    %eax,%edx
  201309:	83 e0 0f             	and    $0xf,%eax
  20130c:	c1 fa 04             	sar    $0x4,%edx
  20130f:	89 45 e4             	mov    %eax,-0x1c(%ebp)
  201312:	85 d2                	test   %edx,%edx
  201314:	74 57                	je     20136d <hexdump+0x7d>
  201316:	c1 e2 04             	shl    $0x4,%edx
  201319:	89 f3                	mov    %esi,%ebx
  20131b:	8d 3c 16             	lea    (%esi,%edx,1),%edi
  20131e:	89 55 e0             	mov    %edx,-0x20(%ebp)
  201321:	eb 0d                	jmp    201330 <hexdump+0x40>
  201323:	90                   	nop
  201324:	90                   	nop
  201325:	90                   	nop
  201326:	90                   	nop
  201327:	90                   	nop
  201328:	90                   	nop
  201329:	90                   	nop
  20132a:	90                   	nop
  20132b:	90                   	nop
  20132c:	90                   	nop
  20132d:	90                   	nop
  20132e:	90                   	nop
  20132f:	90                   	nop
  201330:	83 ec 08             	sub    $0x8,%esp
  201333:	53                   	push   %ebx
  201334:	68 75 41 20 00       	push   $0x204175
  201339:	e8 22 fa ff ff       	call   200d60 <printf>
  20133e:	58                   	pop    %eax
  20133f:	5a                   	pop    %edx
  201340:	6a 10                	push   $0x10
  201342:	53                   	push   %ebx
  201343:	e8 b8 fe ff ff       	call   201200 <print_hex_line>
  201348:	59                   	pop    %ecx
  201349:	58                   	pop    %eax
  20134a:	6a 10                	push   $0x10
  20134c:	53                   	push   %ebx
  20134d:	83 c3 10             	add    $0x10,%ebx
  201350:	e8 3b ff ff ff       	call   201290 <print_ascii_line>
  201355:	c7 04 24 da 41 20 00 	movl   $0x2041da,(%esp)
  20135c:	e8 ff f9 ff ff       	call   200d60 <printf>
  201361:	83 c4 10             	add    $0x10,%esp
  201364:	39 fb                	cmp    %edi,%ebx
  201366:	75 c8                	jne    201330 <hexdump+0x40>
  201368:	8b 45 e0             	mov    -0x20(%ebp),%eax
  20136b:	01 c6                	add    %eax,%esi
  20136d:	83 ec 08             	sub    $0x8,%esp
  201370:	56                   	push   %esi
  201371:	68 75 41 20 00       	push   $0x204175
  201376:	e8 e5 f9 ff ff       	call   200d60 <printf>
  20137b:	8b 7d e4             	mov    -0x1c(%ebp),%edi
  20137e:	58                   	pop    %eax
  20137f:	5a                   	pop    %edx
  201380:	57                   	push   %edi
  201381:	56                   	push   %esi
  201382:	e8 79 fe ff ff       	call   201200 <print_hex_line>
  201387:	59                   	pop    %ecx
  201388:	5b                   	pop    %ebx
  201389:	57                   	push   %edi
  20138a:	56                   	push   %esi
  20138b:	e8 00 ff ff ff       	call   201290 <print_ascii_line>
  201390:	c7 45 08 da 41 20 00 	movl   $0x2041da,0x8(%ebp)
  201397:	83 c4 10             	add    $0x10,%esp
  20139a:	8d 65 f4             	lea    -0xc(%ebp),%esp
  20139d:	5b                   	pop    %ebx
  20139e:	5e                   	pop    %esi
  20139f:	5f                   	pop    %edi
  2013a0:	5d                   	pop    %ebp
  2013a1:	e9 ba f9 ff ff       	jmp    200d60 <printf>
  2013a6:	8d 76 00             	lea    0x0(%esi),%esi
  2013a9:	8d bc 27 00 00 00 00 	lea    0x0(%edi,%eiz,1),%edi
  2013b0:	8d 65 f4             	lea    -0xc(%ebp),%esp
  2013b3:	5b                   	pop    %ebx
  2013b4:	5e                   	pop    %esi
  2013b5:	5f                   	pop    %edi
  2013b6:	5d                   	pop    %ebp
  2013b7:	c3                   	ret
  2013b8:	66 90                	xchg   %ax,%ax
  2013ba:	66 90                	xchg   %ax,%ax
  2013bc:	66 90                	xchg   %ax,%ax
  2013be:	66 90                	xchg   %ax,%ax

002013c0 <test_printf>:
  2013c0:	55                   	push   %ebp
  2013c1:	89 e5                	mov    %esp,%ebp
  2013c3:	83 ec 10             	sub    $0x10,%esp
  2013c6:	6a 63                	push   $0x63
  2013c8:	68 7a 41 20 00       	push   $0x20417a
  2013cd:	e8 8e f9 ff ff       	call   200d60 <printf>
  2013d2:	58                   	pop    %eax
  2013d3:	5a                   	pop    %edx
  2013d4:	68 88 41 20 00       	push   $0x204188
  2013d9:	68 8f 41 20 00       	push   $0x20418f
  2013de:	e8 7d f9 ff ff       	call   200d60 <printf>
  2013e3:	c7 04 24 9d 41 20 00 	movl   $0x20419d,(%esp)
  2013ea:	e8 71 f9 ff ff       	call   200d60 <printf>
  2013ef:	59                   	pop    %ecx
  2013f0:	58                   	pop    %eax
  2013f1:	6a 01                	push   $0x1
  2013f3:	68 af 41 20 00       	push   $0x2041af
  2013f8:	e8 63 f9 ff ff       	call   200d60 <printf>
  2013fd:	58                   	pop    %eax
  2013fe:	5a                   	pop    %edx
  2013ff:	6a 01                	push   $0x1
  201401:	68 be 41 20 00       	push   $0x2041be
  201406:	e8 55 f9 ff ff       	call   200d60 <printf>
  20140b:	59                   	pop    %ecx
  20140c:	58                   	pop    %eax
  20140d:	6a 01                	push   $0x1
  20140f:	68 cd 41 20 00       	push   $0x2041cd
  201414:	e8 47 f9 ff ff       	call   200d60 <printf>
  201419:	c7 04 24 dc 41 20 00 	movl   $0x2041dc,(%esp)
  201420:	e8 3b f9 ff ff       	call   200d60 <printf>
  201425:	58                   	pop    %eax
  201426:	5a                   	pop    %edx
  201427:	6a 02                	push   $0x2
  201429:	68 af 41 20 00       	push   $0x2041af
  20142e:	e8 2d f9 ff ff       	call   200d60 <printf>
  201433:	59                   	pop    %ecx
  201434:	58                   	pop    %eax
  201435:	6a 02                	push   $0x2
  201437:	68 be 41 20 00       	push   $0x2041be
  20143c:	e8 1f f9 ff ff       	call   200d60 <printf>
  201441:	58                   	pop    %eax
  201442:	5a                   	pop    %edx
  201443:	6a 02                	push   $0x2
  201445:	68 cd 41 20 00       	push   $0x2041cd
  20144a:	e8 11 f9 ff ff       	call   200d60 <printf>
  20144f:	c7 04 24 ee 41 20 00 	movl   $0x2041ee,(%esp)
  201456:	e8 05 f9 ff ff       	call   200d60 <printf>
  20145b:	59                   	pop    %ecx
  20145c:	58                   	pop    %eax
  20145d:	6a 63                	push   $0x63
  20145f:	68 af 41 20 00       	push   $0x2041af
  201464:	e8 f7 f8 ff ff       	call   200d60 <printf>
  201469:	58                   	pop    %eax
  20146a:	5a                   	pop    %edx
  20146b:	6a 63                	push   $0x63
  20146d:	68 be 41 20 00       	push   $0x2041be
  201472:	e8 e9 f8 ff ff       	call   200d60 <printf>
  201477:	59                   	pop    %ecx
  201478:	58                   	pop    %eax
  201479:	6a 63                	push   $0x63
  20147b:	68 cd 41 20 00       	push   $0x2041cd
  201480:	e8 db f8 ff ff       	call   200d60 <printf>
  201485:	c7 04 24 01 42 20 00 	movl   $0x204201,(%esp)
  20148c:	e8 cf f8 ff ff       	call   200d60 <printf>
  201491:	58                   	pop    %eax
  201492:	5a                   	pop    %edx
  201493:	6a 64                	push   $0x64
  201495:	68 af 41 20 00       	push   $0x2041af
  20149a:	e8 c1 f8 ff ff       	call   200d60 <printf>
  20149f:	59                   	pop    %ecx
  2014a0:	58                   	pop    %eax
  2014a1:	6a 64                	push   $0x64
  2014a3:	68 be 41 20 00       	push   $0x2041be
  2014a8:	e8 b3 f8 ff ff       	call   200d60 <printf>
  2014ad:	58                   	pop    %eax
  2014ae:	5a                   	pop    %edx
  2014af:	6a 64                	push   $0x64
  2014b1:	68 cd 41 20 00       	push   $0x2041cd
  2014b6:	e8 a5 f8 ff ff       	call   200d60 <printf>
  2014bb:	83 c4 10             	add    $0x10,%esp
  2014be:	c9                   	leave
  2014bf:	c3                   	ret

002014c0 <clean_registers>:
  2014c0:	55                   	push   %ebp
  2014c1:	89 e5                	mov    %esp,%ebp
  2014c3:	31 c0                	xor    %eax,%eax
  2014c5:	31 db                	xor    %ebx,%ebx
  2014c7:	31 c9                	xor    %ecx,%ecx
  2014c9:	31 d2                	xor    %edx,%edx
  2014cb:	31 f6                	xor    %esi,%esi
  2014cd:	31 ff                	xor    %edi,%edi
  2014cf:	31 ed                	xor    %ebp,%ebp
  2014d1:	66 8c d8             	mov    %ds,%ax
  2014d4:	66 8c c0             	mov    %es,%ax
  2014d7:	66 8c e0             	mov    %fs,%ax
  2014da:	66 8c e8             	mov    %gs,%ax
  2014dd:	5d                   	pop    %ebp
  2014de:	c3                   	ret
  2014df:	90                   	nop

002014e0 <print_stack_frame>:
  2014e0:	55                   	push   %ebp
  2014e1:	89 e5                	mov    %esp,%ebp
  2014e3:	56                   	push   %esi
  2014e4:	53                   	push   %ebx
  2014e5:	89 eb                	mov    %ebp,%ebx
  2014e7:	8d 73 50             	lea    0x50(%ebx),%esi
  2014ea:	8d b6 00 00 00 00    	lea    0x0(%esi),%esi
  2014f0:	83 ec 04             	sub    $0x4,%esp
  2014f3:	ff 33                	push   (%ebx)
  2014f5:	53                   	push   %ebx
  2014f6:	68 14 42 20 00       	push   $0x204214
  2014fb:	83 c3 04             	add    $0x4,%ebx
  2014fe:	e8 1d f9 ff ff       	call   200e20 <printk>
  201503:	83 c4 10             	add    $0x10,%esp
  201506:	39 f3                	cmp    %esi,%ebx
  201508:	75 e6                	jne    2014f0 <print_stack_frame+0x10>
  20150a:	89 e8                	mov    %ebp,%eax
  20150c:	8d 65 f8             	lea    -0x8(%ebp),%esp
  20150f:	5b                   	pop    %ebx
  201510:	5e                   	pop    %esi
  201511:	5d                   	pop    %ebp
  201512:	c3                   	ret
  201513:	66 90                	xchg   %ax,%ax
  201515:	66 90                	xchg   %ax,%ax
  201517:	66 90                	xchg   %ax,%ax
  201519:	66 90                	xchg   %ax,%ax
  20151b:	66 90                	xchg   %ax,%ax
  20151d:	66 90                	xchg   %ax,%ax
  20151f:	90                   	nop

00201520 <ascii_1>:
  201520:	55                   	push   %ebp
  201521:	89 e5                	mov    %esp,%ebp
  201523:	83 ec 14             	sub    $0x14,%esp
  201526:	68 fc 4d 20 00       	push   $0x204dfc
  20152b:	e8 30 f8 ff ff       	call   200d60 <printf>
  201530:	c7 04 24 2c 4e 20 00 	movl   $0x204e2c,(%esp)
  201537:	e8 24 f8 ff ff       	call   200d60 <printf>
  20153c:	c7 04 24 60 4e 20 00 	movl   $0x204e60,(%esp)
  201543:	e8 18 f8 ff ff       	call   200d60 <printf>
  201548:	c7 04 24 94 4e 20 00 	movl   $0x204e94,(%esp)
  20154f:	e8 0c f8 ff ff       	call   200d60 <printf>
  201554:	c7 04 24 cc 4e 20 00 	movl   $0x204ecc,(%esp)
  20155b:	e8 00 f8 ff ff       	call   200d60 <printf>
  201560:	c7 04 24 04 4f 20 00 	movl   $0x204f04,(%esp)
  201567:	e8 f4 f7 ff ff       	call   200d60 <printf>
  20156c:	c7 04 24 3c 4f 20 00 	movl   $0x204f3c,(%esp)
  201573:	e8 e8 f7 ff ff       	call   200d60 <printf>
  201578:	c7 04 24 78 4f 20 00 	movl   $0x204f78,(%esp)
  20157f:	e8 dc f7 ff ff       	call   200d60 <printf>
  201584:	c7 04 24 b4 4f 20 00 	movl   $0x204fb4,(%esp)
  20158b:	e8 d0 f7 ff ff       	call   200d60 <printf>
  201590:	c7 04 24 f0 4f 20 00 	movl   $0x204ff0,(%esp)
  201597:	e8 c4 f7 ff ff       	call   200d60 <printf>
  20159c:	c7 04 24 2c 50 20 00 	movl   $0x20502c,(%esp)
  2015a3:	e8 b8 f7 ff ff       	call   200d60 <printf>
  2015a8:	c7 04 24 68 50 20 00 	movl   $0x205068,(%esp)
  2015af:	e8 ac f7 ff ff       	call   200d60 <printf>
  2015b4:	c7 04 24 a4 50 20 00 	movl   $0x2050a4,(%esp)
  2015bb:	e8 a0 f7 ff ff       	call   200d60 <printf>
  2015c0:	c7 04 24 e0 50 20 00 	movl   $0x2050e0,(%esp)
  2015c7:	e8 94 f7 ff ff       	call   200d60 <printf>
  2015cc:	c7 04 24 1c 51 20 00 	movl   $0x20511c,(%esp)
  2015d3:	e8 88 f7 ff ff       	call   200d60 <printf>
  2015d8:	c7 04 24 58 51 20 00 	movl   $0x205158,(%esp)
  2015df:	e8 7c f7 ff ff       	call   200d60 <printf>
  2015e4:	c7 04 24 94 51 20 00 	movl   $0x205194,(%esp)
  2015eb:	e8 70 f7 ff ff       	call   200d60 <printf>
  2015f0:	c7 04 24 d0 51 20 00 	movl   $0x2051d0,(%esp)
  2015f7:	e8 64 f7 ff ff       	call   200d60 <printf>
  2015fc:	c7 04 24 08 52 20 00 	movl   $0x205208,(%esp)
  201603:	e8 58 f7 ff ff       	call   200d60 <printf>
  201608:	c7 04 24 40 52 20 00 	movl   $0x205240,(%esp)
  20160f:	e8 4c f7 ff ff       	call   200d60 <printf>
  201614:	c7 04 24 74 52 20 00 	movl   $0x205274,(%esp)
  20161b:	e8 40 f7 ff ff       	call   200d60 <printf>
  201620:	c7 04 24 a8 52 20 00 	movl   $0x2052a8,(%esp)
  201627:	e8 34 f7 ff ff       	call   200d60 <printf>
  20162c:	c7 04 24 d8 52 20 00 	movl   $0x2052d8,(%esp)
  201633:	e8 28 f7 ff ff       	call   200d60 <printf>
  201638:	c7 04 24 08 53 20 00 	movl   $0x205308,(%esp)
  20163f:	e8 1c f7 ff ff       	call   200d60 <printf>
  201644:	83 c4 10             	add    $0x10,%esp
  201647:	c9                   	leave
  201648:	c3                   	ret
  201649:	8d b4 26 00 00 00 00 	lea    0x0(%esi,%eiz,1),%esi

00201650 <ascii_2>:
  201650:	55                   	push   %ebp
  201651:	89 e5                	mov    %esp,%ebp
  201653:	83 ec 14             	sub    $0x14,%esp
  201656:	68 48 53 20 00       	push   $0x205348
  20165b:	e8 00 f7 ff ff       	call   200d60 <printf>
  201660:	c7 04 24 78 53 20 00 	movl   $0x205378,(%esp)
  201667:	e8 f4 f6 ff ff       	call   200d60 <printf>
  20166c:	c7 04 24 ac 53 20 00 	movl   $0x2053ac,(%esp)
  201673:	e8 e8 f6 ff ff       	call   200d60 <printf>
  201678:	c7 04 24 e0 53 20 00 	movl   $0x2053e0,(%esp)
  20167f:	e8 dc f6 ff ff       	call   200d60 <printf>
  201684:	c7 04 24 18 54 20 00 	movl   $0x205418,(%esp)
  20168b:	e8 d0 f6 ff ff       	call   200d60 <printf>
  201690:	c7 04 24 50 54 20 00 	movl   $0x205450,(%esp)
  201697:	e8 c4 f6 ff ff       	call   200d60 <printf>
  20169c:	c7 04 24 88 54 20 00 	movl   $0x205488,(%esp)
  2016a3:	e8 b8 f6 ff ff       	call   200d60 <printf>
  2016a8:	c7 04 24 c4 54 20 00 	movl   $0x2054c4,(%esp)
  2016af:	e8 ac f6 ff ff       	call   200d60 <printf>
  2016b4:	c7 04 24 00 55 20 00 	movl   $0x205500,(%esp)
  2016bb:	e8 a0 f6 ff ff       	call   200d60 <printf>
  2016c0:	c7 04 24 3c 55 20 00 	movl   $0x20553c,(%esp)
  2016c7:	e8 94 f6 ff ff       	call   200d60 <printf>
  2016cc:	c7 04 24 78 55 20 00 	movl   $0x205578,(%esp)
  2016d3:	e8 88 f6 ff ff       	call   200d60 <printf>
  2016d8:	c7 04 24 b4 55 20 00 	movl   $0x2055b4,(%esp)
  2016df:	e8 7c f6 ff ff       	call   200d60 <printf>
  2016e4:	c7 04 24 f0 55 20 00 	movl   $0x2055f0,(%esp)
  2016eb:	e8 70 f6 ff ff       	call   200d60 <printf>
  2016f0:	c7 04 24 2c 56 20 00 	movl   $0x20562c,(%esp)
  2016f7:	e8 64 f6 ff ff       	call   200d60 <printf>
  2016fc:	c7 04 24 68 56 20 00 	movl   $0x205668,(%esp)
  201703:	e8 58 f6 ff ff       	call   200d60 <printf>
  201708:	c7 04 24 a4 56 20 00 	movl   $0x2056a4,(%esp)
  20170f:	e8 4c f6 ff ff       	call   200d60 <printf>
  201714:	c7 04 24 e0 56 20 00 	movl   $0x2056e0,(%esp)
  20171b:	e8 40 f6 ff ff       	call   200d60 <printf>
  201720:	c7 04 24 1c 57 20 00 	movl   $0x20571c,(%esp)
  201727:	e8 34 f6 ff ff       	call   200d60 <printf>
  20172c:	c7 04 24 58 57 20 00 	movl   $0x205758,(%esp)
  201733:	e8 28 f6 ff ff       	call   200d60 <printf>
  201738:	c7 04 24 90 57 20 00 	movl   $0x205790,(%esp)
  20173f:	e8 1c f6 ff ff       	call   200d60 <printf>
  201744:	c7 04 24 c8 57 20 00 	movl   $0x2057c8,(%esp)
  20174b:	e8 10 f6 ff ff       	call   200d60 <printf>
  201750:	c7 04 24 fc 57 20 00 	movl   $0x2057fc,(%esp)
  201757:	e8 04 f6 ff ff       	call   200d60 <printf>
  20175c:	c7 04 24 30 58 20 00 	movl   $0x205830,(%esp)
  201763:	e8 f8 f5 ff ff       	call   200d60 <printf>
  201768:	c7 04 24 60 58 20 00 	movl   $0x205860,(%esp)
  20176f:	e8 ec f5 ff ff       	call   200d60 <printf>
  201774:	83 c4 10             	add    $0x10,%esp
  201777:	c9                   	leave
  201778:	c3                   	ret
  201779:	8d b4 26 00 00 00 00 	lea    0x0(%esi,%eiz,1),%esi

00201780 <ascii_3>:
  201780:	55                   	push   %ebp
  201781:	89 e5                	mov    %esp,%ebp
  201783:	83 ec 14             	sub    $0x14,%esp
  201786:	68 a0 58 20 00       	push   $0x2058a0
  20178b:	e8 d0 f5 ff ff       	call   200d60 <printf>
  201790:	c7 04 24 d0 58 20 00 	movl   $0x2058d0,(%esp)
  201797:	e8 c4 f5 ff ff       	call   200d60 <printf>
  20179c:	c7 04 24 04 59 20 00 	movl   $0x205904,(%esp)
  2017a3:	e8 b8 f5 ff ff       	call   200d60 <printf>
  2017a8:	c7 04 24 38 59 20 00 	movl   $0x205938,(%esp)
  2017af:	e8 ac f5 ff ff       	call   200d60 <printf>
  2017b4:	c7 04 24 70 59 20 00 	movl   $0x205970,(%esp)
  2017bb:	e8 a0 f5 ff ff       	call   200d60 <printf>
  2017c0:	c7 04 24 a8 59 20 00 	movl   $0x2059a8,(%esp)
  2017c7:	e8 94 f5 ff ff       	call   200d60 <printf>
  2017cc:	c7 04 24 e0 59 20 00 	movl   $0x2059e0,(%esp)
  2017d3:	e8 88 f5 ff ff       	call   200d60 <printf>
  2017d8:	c7 04 24 1c 5a 20 00 	movl   $0x205a1c,(%esp)
  2017df:	e8 7c f5 ff ff       	call   200d60 <printf>
  2017e4:	c7 04 24 58 5a 20 00 	movl   $0x205a58,(%esp)
  2017eb:	e8 70 f5 ff ff       	call   200d60 <printf>
  2017f0:	c7 04 24 94 5a 20 00 	movl   $0x205a94,(%esp)
  2017f7:	e8 64 f5 ff ff       	call   200d60 <printf>
  2017fc:	c7 04 24 d0 5a 20 00 	movl   $0x205ad0,(%esp)
  201803:	e8 58 f5 ff ff       	call   200d60 <printf>
  201808:	c7 04 24 0c 5b 20 00 	movl   $0x205b0c,(%esp)
  20180f:	e8 4c f5 ff ff       	call   200d60 <printf>
  201814:	c7 04 24 48 5b 20 00 	movl   $0x205b48,(%esp)
  20181b:	e8 40 f5 ff ff       	call   200d60 <printf>
  201820:	c7 04 24 84 5b 20 00 	movl   $0x205b84,(%esp)
  201827:	e8 34 f5 ff ff       	call   200d60 <printf>
  20182c:	c7 04 24 c0 5b 20 00 	movl   $0x205bc0,(%esp)
  201833:	e8 28 f5 ff ff       	call   200d60 <printf>
  201838:	c7 04 24 fc 5b 20 00 	movl   $0x205bfc,(%esp)
  20183f:	e8 1c f5 ff ff       	call   200d60 <printf>
  201844:	c7 04 24 38 5c 20 00 	movl   $0x205c38,(%esp)
  20184b:	e8 10 f5 ff ff       	call   200d60 <printf>
  201850:	c7 04 24 74 5c 20 00 	movl   $0x205c74,(%esp)
  201857:	e8 04 f5 ff ff       	call   200d60 <printf>
  20185c:	c7 04 24 ac 5c 20 00 	movl   $0x205cac,(%esp)
  201863:	e8 f8 f4 ff ff       	call   200d60 <printf>
  201868:	c7 04 24 e4 5c 20 00 	movl   $0x205ce4,(%esp)
  20186f:	e8 ec f4 ff ff       	call   200d60 <printf>
  201874:	c7 04 24 1c 5d 20 00 	movl   $0x205d1c,(%esp)
  20187b:	e8 e0 f4 ff ff       	call   200d60 <printf>
  201880:	c7 04 24 50 5d 20 00 	movl   $0x205d50,(%esp)
  201887:	e8 d4 f4 ff ff       	call   200d60 <printf>
  20188c:	c7 04 24 84 5d 20 00 	movl   $0x205d84,(%esp)
  201893:	e8 c8 f4 ff ff       	call   200d60 <printf>
  201898:	c7 04 24 b4 5d 20 00 	movl   $0x205db4,(%esp)
  20189f:	e8 bc f4 ff ff       	call   200d60 <printf>
  2018a4:	83 c4 10             	add    $0x10,%esp
  2018a7:	c9                   	leave
  2018a8:	c3                   	ret
  2018a9:	8d b4 26 00 00 00 00 	lea    0x0(%esi,%eiz,1),%esi

002018b0 <ascii_4>:
  2018b0:	55                   	push   %ebp
  2018b1:	89 e5                	mov    %esp,%ebp
  2018b3:	83 ec 14             	sub    $0x14,%esp
  2018b6:	68 f4 5d 20 00       	push   $0x205df4
  2018bb:	e8 a0 f4 ff ff       	call   200d60 <printf>
  2018c0:	c7 04 24 24 5e 20 00 	movl   $0x205e24,(%esp)
  2018c7:	e8 94 f4 ff ff       	call   200d60 <printf>
  2018cc:	c7 04 24 58 5e 20 00 	movl   $0x205e58,(%esp)
  2018d3:	e8 88 f4 ff ff       	call   200d60 <printf>
  2018d8:	c7 04 24 8c 5e 20 00 	movl   $0x205e8c,(%esp)
  2018df:	e8 7c f4 ff ff       	call   200d60 <printf>
  2018e4:	c7 04 24 c4 5e 20 00 	movl   $0x205ec4,(%esp)
  2018eb:	e8 70 f4 ff ff       	call   200d60 <printf>
  2018f0:	c7 04 24 fc 5e 20 00 	movl   $0x205efc,(%esp)
  2018f7:	e8 64 f4 ff ff       	call   200d60 <printf>
  2018fc:	c7 04 24 34 5f 20 00 	movl   $0x205f34,(%esp)
  201903:	e8 58 f4 ff ff       	call   200d60 <printf>
  201908:	c7 04 24 70 5f 20 00 	movl   $0x205f70,(%esp)
  20190f:	e8 4c f4 ff ff       	call   200d60 <printf>
  201914:	c7 04 24 ac 5f 20 00 	movl   $0x205fac,(%esp)
  20191b:	e8 40 f4 ff ff       	call   200d60 <printf>
  201920:	c7 04 24 e8 5f 20 00 	movl   $0x205fe8,(%esp)
  201927:	e8 34 f4 ff ff       	call   200d60 <printf>
  20192c:	c7 04 24 24 60 20 00 	movl   $0x206024,(%esp)
  201933:	e8 28 f4 ff ff       	call   200d60 <printf>
  201938:	c7 04 24 60 60 20 00 	movl   $0x206060,(%esp)
  20193f:	e8 1c f4 ff ff       	call   200d60 <printf>
  201944:	c7 04 24 9c 60 20 00 	movl   $0x20609c,(%esp)
  20194b:	e8 10 f4 ff ff       	call   200d60 <printf>
  201950:	c7 04 24 d8 60 20 00 	movl   $0x2060d8,(%esp)
  201957:	e8 04 f4 ff ff       	call   200d60 <printf>
  20195c:	c7 04 24 14 61 20 00 	movl   $0x206114,(%esp)
  201963:	e8 f8 f3 ff ff       	call   200d60 <printf>
  201968:	c7 04 24 50 61 20 00 	movl   $0x206150,(%esp)
  20196f:	e8 ec f3 ff ff       	call   200d60 <printf>
  201974:	c7 04 24 8c 61 20 00 	movl   $0x20618c,(%esp)
  20197b:	e8 e0 f3 ff ff       	call   200d60 <printf>
  201980:	c7 04 24 c8 61 20 00 	movl   $0x2061c8,(%esp)
  201987:	e8 d4 f3 ff ff       	call   200d60 <printf>
  20198c:	c7 04 24 00 62 20 00 	movl   $0x206200,(%esp)
  201993:	e8 c8 f3 ff ff       	call   200d60 <printf>
  201998:	c7 04 24 38 62 20 00 	movl   $0x206238,(%esp)
  20199f:	e8 bc f3 ff ff       	call   200d60 <printf>
  2019a4:	c7 04 24 70 62 20 00 	movl   $0x206270,(%esp)
  2019ab:	e8 b0 f3 ff ff       	call   200d60 <printf>
  2019b0:	c7 04 24 a4 62 20 00 	movl   $0x2062a4,(%esp)
  2019b7:	e8 a4 f3 ff ff       	call   200d60 <printf>
  2019bc:	c7 04 24 d4 62 20 00 	movl   $0x2062d4,(%esp)
  2019c3:	e8 98 f3 ff ff       	call   200d60 <printf>
  2019c8:	c7 04 24 04 63 20 00 	movl   $0x206304,(%esp)
  2019cf:	e8 8c f3 ff ff       	call   200d60 <printf>
  2019d4:	83 c4 10             	add    $0x10,%esp
  2019d7:	c9                   	leave
  2019d8:	c3                   	ret
  2019d9:	8d b4 26 00 00 00 00 	lea    0x0(%esi,%eiz,1),%esi

002019e0 <ascii_5>:
  2019e0:	55                   	push   %ebp
  2019e1:	89 e5                	mov    %esp,%ebp
  2019e3:	83 ec 14             	sub    $0x14,%esp
  2019e6:	68 44 63 20 00       	push   $0x206344
  2019eb:	e8 70 f3 ff ff       	call   200d60 <printf>
  2019f0:	c7 04 24 74 63 20 00 	movl   $0x206374,(%esp)
  2019f7:	e8 64 f3 ff ff       	call   200d60 <printf>
  2019fc:	c7 04 24 a8 63 20 00 	movl   $0x2063a8,(%esp)
  201a03:	e8 58 f3 ff ff       	call   200d60 <printf>
  201a08:	c7 04 24 dc 63 20 00 	movl   $0x2063dc,(%esp)
  201a0f:	e8 4c f3 ff ff       	call   200d60 <printf>
  201a14:	c7 04 24 14 64 20 00 	movl   $0x206414,(%esp)
  201a1b:	e8 40 f3 ff ff       	call   200d60 <printf>
  201a20:	c7 04 24 4c 64 20 00 	movl   $0x20644c,(%esp)
  201a27:	e8 34 f3 ff ff       	call   200d60 <printf>
  201a2c:	c7 04 24 84 64 20 00 	movl   $0x206484,(%esp)
  201a33:	e8 28 f3 ff ff       	call   200d60 <printf>
  201a38:	c7 04 24 c0 64 20 00 	movl   $0x2064c0,(%esp)
  201a3f:	e8 1c f3 ff ff       	call   200d60 <printf>
  201a44:	c7 04 24 fc 64 20 00 	movl   $0x2064fc,(%esp)
  201a4b:	e8 10 f3 ff ff       	call   200d60 <printf>
  201a50:	c7 04 24 38 65 20 00 	movl   $0x206538,(%esp)
  201a57:	e8 04 f3 ff ff       	call   200d60 <printf>
  201a5c:	c7 04 24 74 65 20 00 	movl   $0x206574,(%esp)
  201a63:	e8 f8 f2 ff ff       	call   200d60 <printf>
  201a68:	c7 04 24 b0 65 20 00 	movl   $0x2065b0,(%esp)
  201a6f:	e8 ec f2 ff ff       	call   200d60 <printf>
  201a74:	c7 04 24 ec 65 20 00 	movl   $0x2065ec,(%esp)
  201a7b:	e8 e0 f2 ff ff       	call   200d60 <printf>
  201a80:	c7 04 24 28 66 20 00 	movl   $0x206628,(%esp)
  201a87:	e8 d4 f2 ff ff       	call   200d60 <printf>
  201a8c:	c7 04 24 64 66 20 00 	movl   $0x206664,(%esp)
  201a93:	e8 c8 f2 ff ff       	call   200d60 <printf>
  201a98:	c7 04 24 a0 66 20 00 	movl   $0x2066a0,(%esp)
  201a9f:	e8 bc f2 ff ff       	call   200d60 <printf>
  201aa4:	c7 04 24 dc 66 20 00 	movl   $0x2066dc,(%esp)
  201aab:	e8 b0 f2 ff ff       	call   200d60 <printf>
  201ab0:	c7 04 24 18 67 20 00 	movl   $0x206718,(%esp)
  201ab7:	e8 a4 f2 ff ff       	call   200d60 <printf>
  201abc:	c7 04 24 50 67 20 00 	movl   $0x206750,(%esp)
  201ac3:	e8 98 f2 ff ff       	call   200d60 <printf>
  201ac8:	c7 04 24 88 67 20 00 	movl   $0x206788,(%esp)
  201acf:	e8 8c f2 ff ff       	call   200d60 <printf>
  201ad4:	c7 04 24 c0 67 20 00 	movl   $0x2067c0,(%esp)
  201adb:	e8 80 f2 ff ff       	call   200d60 <printf>
  201ae0:	c7 04 24 f4 67 20 00 	movl   $0x2067f4,(%esp)
  201ae7:	e8 74 f2 ff ff       	call   200d60 <printf>
  201aec:	c7 04 24 24 68 20 00 	movl   $0x206824,(%esp)
  201af3:	e8 68 f2 ff ff       	call   200d60 <printf>
  201af8:	c7 04 24 54 68 20 00 	movl   $0x206854,(%esp)
  201aff:	e8 5c f2 ff ff       	call   200d60 <printf>
  201b04:	83 c4 10             	add    $0x10,%esp
  201b07:	c9                   	leave
  201b08:	c3                   	ret
  201b09:	66 90                	xchg   %ax,%ax
  201b0b:	66 90                	xchg   %ax,%ax
  201b0d:	66 90                	xchg   %ax,%ax
  201b0f:	90                   	nop

00201b10 <ascii_6>:
  201b10:	55                   	push   %ebp
  201b11:	89 e5                	mov    %esp,%ebp
  201b13:	83 ec 14             	sub    $0x14,%esp
  201b16:	68 94 68 20 00       	push   $0x206894
  201b1b:	e8 40 f2 ff ff       	call   200d60 <printf>
  201b20:	c7 04 24 c4 68 20 00 	movl   $0x2068c4,(%esp)
  201b27:	e8 34 f2 ff ff       	call   200d60 <printf>
  201b2c:	c7 04 24 f8 68 20 00 	movl   $0x2068f8,(%esp)
  201b33:	e8 28 f2 ff ff       	call   200d60 <printf>
  201b38:	c7 04 24 2c 69 20 00 	movl   $0x20692c,(%esp)
  201b3f:	e8 1c f2 ff ff       	call   200d60 <printf>
  201b44:	c7 04 24 64 69 20 00 	movl   $0x206964,(%esp)
  201b4b:	e8 10 f2 ff ff       	call   200d60 <printf>
  201b50:	c7 04 24 9c 69 20 00 	movl   $0x20699c,(%esp)
  201b57:	e8 04 f2 ff ff       	call   200d60 <printf>
  201b5c:	c7 04 24 d4 69 20 00 	movl   $0x2069d4,(%esp)
  201b63:	e8 f8 f1 ff ff       	call   200d60 <printf>
  201b68:	c7 04 24 10 6a 20 00 	movl   $0x206a10,(%esp)
  201b6f:	e8 ec f1 ff ff       	call   200d60 <printf>
  201b74:	c7 04 24 4c 6a 20 00 	movl   $0x206a4c,(%esp)
  201b7b:	e8 e0 f1 ff ff       	call   200d60 <printf>
  201b80:	c7 04 24 88 6a 20 00 	movl   $0x206a88,(%esp)
  201b87:	e8 d4 f1 ff ff       	call   200d60 <printf>
  201b8c:	c7 04 24 c4 6a 20 00 	movl   $0x206ac4,(%esp)
  201b93:	e8 c8 f1 ff ff       	call   200d60 <printf>
  201b98:	c7 04 24 00 6b 20 00 	movl   $0x206b00,(%esp)
  201b9f:	e8 bc f1 ff ff       	call   200d60 <printf>
  201ba4:	c7 04 24 3c 6b 20 00 	movl   $0x206b3c,(%esp)
  201bab:	e8 b0 f1 ff ff       	call   200d60 <printf>
  201bb0:	c7 04 24 78 6b 20 00 	movl   $0x206b78,(%esp)
  201bb7:	e8 a4 f1 ff ff       	call   200d60 <printf>
  201bbc:	c7 04 24 b4 6b 20 00 	movl   $0x206bb4,(%esp)
  201bc3:	e8 98 f1 ff ff       	call   200d60 <printf>
  201bc8:	c7 04 24 f0 6b 20 00 	movl   $0x206bf0,(%esp)
  201bcf:	e8 8c f1 ff ff       	call   200d60 <printf>
  201bd4:	c7 04 24 2c 6c 20 00 	movl   $0x206c2c,(%esp)
  201bdb:	e8 80 f1 ff ff       	call   200d60 <printf>
  201be0:	c7 04 24 68 6c 20 00 	movl   $0x206c68,(%esp)
  201be7:	e8 74 f1 ff ff       	call   200d60 <printf>
  201bec:	c7 04 24 a0 6c 20 00 	movl   $0x206ca0,(%esp)
  201bf3:	e8 68 f1 ff ff       	call   200d60 <printf>
  201bf8:	c7 04 24 d8 6c 20 00 	movl   $0x206cd8,(%esp)
  201bff:	e8 5c f1 ff ff       	call   200d60 <printf>
  201c04:	c7 04 24 10 6d 20 00 	movl   $0x206d10,(%esp)
  201c0b:	e8 50 f1 ff ff       	call   200d60 <printf>
  201c10:	c7 04 24 44 6d 20 00 	movl   $0x206d44,(%esp)
  201c17:	e8 44 f1 ff ff       	call   200d60 <printf>
  201c1c:	c7 04 24 74 6d 20 00 	movl   $0x206d74,(%esp)
  201c23:	e8 38 f1 ff ff       	call   200d60 <printf>
  201c28:	c7 04 24 a4 6d 20 00 	movl   $0x206da4,(%esp)
  201c2f:	e8 2c f1 ff ff       	call   200d60 <printf>
  201c34:	83 c4 10             	add    $0x10,%esp
  201c37:	c9                   	leave
  201c38:	c3                   	ret
  201c39:	8d b4 26 00 00 00 00 	lea    0x0(%esi,%eiz,1),%esi

00201c40 <ascii_7>:
  201c40:	55                   	push   %ebp
  201c41:	89 e5                	mov    %esp,%ebp
  201c43:	83 ec 14             	sub    $0x14,%esp
  201c46:	68 e4 6d 20 00       	push   $0x206de4
  201c4b:	e8 10 f1 ff ff       	call   200d60 <printf>
  201c50:	c7 04 24 14 6e 20 00 	movl   $0x206e14,(%esp)
  201c57:	e8 04 f1 ff ff       	call   200d60 <printf>
  201c5c:	c7 04 24 48 6e 20 00 	movl   $0x206e48,(%esp)
  201c63:	e8 f8 f0 ff ff       	call   200d60 <printf>
  201c68:	c7 04 24 7c 6e 20 00 	movl   $0x206e7c,(%esp)
  201c6f:	e8 ec f0 ff ff       	call   200d60 <printf>
  201c74:	c7 04 24 b4 6e 20 00 	movl   $0x206eb4,(%esp)
  201c7b:	e8 e0 f0 ff ff       	call   200d60 <printf>
  201c80:	c7 04 24 ec 6e 20 00 	movl   $0x206eec,(%esp)
  201c87:	e8 d4 f0 ff ff       	call   200d60 <printf>
  201c8c:	c7 04 24 24 6f 20 00 	movl   $0x206f24,(%esp)
  201c93:	e8 c8 f0 ff ff       	call   200d60 <printf>
  201c98:	c7 04 24 60 6f 20 00 	movl   $0x206f60,(%esp)
  201c9f:	e8 bc f0 ff ff       	call   200d60 <printf>
  201ca4:	c7 04 24 9c 6f 20 00 	movl   $0x206f9c,(%esp)
  201cab:	e8 b0 f0 ff ff       	call   200d60 <printf>
  201cb0:	c7 04 24 d8 6f 20 00 	movl   $0x206fd8,(%esp)
  201cb7:	e8 a4 f0 ff ff       	call   200d60 <printf>
  201cbc:	c7 04 24 14 70 20 00 	movl   $0x207014,(%esp)
  201cc3:	e8 98 f0 ff ff       	call   200d60 <printf>
  201cc8:	c7 04 24 50 70 20 00 	movl   $0x207050,(%esp)
  201ccf:	e8 8c f0 ff ff       	call   200d60 <printf>
  201cd4:	c7 04 24 8c 70 20 00 	movl   $0x20708c,(%esp)
  201cdb:	e8 80 f0 ff ff       	call   200d60 <printf>
  201ce0:	c7 04 24 c8 70 20 00 	movl   $0x2070c8,(%esp)
  201ce7:	e8 74 f0 ff ff       	call   200d60 <printf>
  201cec:	c7 04 24 04 71 20 00 	movl   $0x207104,(%esp)
  201cf3:	e8 68 f0 ff ff       	call   200d60 <printf>
  201cf8:	c7 04 24 40 71 20 00 	movl   $0x207140,(%esp)
  201cff:	e8 5c f0 ff ff       	call   200d60 <printf>
  201d04:	c7 04 24 7c 71 20 00 	movl   $0x20717c,(%esp)
  201d0b:	e8 50 f0 ff ff       	call   200d60 <printf>
  201d10:	c7 04 24 b8 71 20 00 	movl   $0x2071b8,(%esp)
  201d17:	e8 44 f0 ff ff       	call   200d60 <printf>
  201d1c:	c7 04 24 f0 71 20 00 	movl   $0x2071f0,(%esp)
  201d23:	e8 38 f0 ff ff       	call   200d60 <printf>
  201d28:	c7 04 24 28 72 20 00 	movl   $0x207228,(%esp)
  201d2f:	e8 2c f0 ff ff       	call   200d60 <printf>
  201d34:	c7 04 24 60 72 20 00 	movl   $0x207260,(%esp)
  201d3b:	e8 20 f0 ff ff       	call   200d60 <printf>
  201d40:	c7 04 24 94 72 20 00 	movl   $0x207294,(%esp)
  201d47:	e8 14 f0 ff ff       	call   200d60 <printf>
  201d4c:	c7 04 24 c4 72 20 00 	movl   $0x2072c4,(%esp)
  201d53:	e8 08 f0 ff ff       	call   200d60 <printf>
  201d58:	c7 04 24 f4 72 20 00 	movl   $0x2072f4,(%esp)
  201d5f:	e8 fc ef ff ff       	call   200d60 <printf>
  201d64:	83 c4 10             	add    $0x10,%esp
  201d67:	c9                   	leave
  201d68:	c3                   	ret
  201d69:	8d b4 26 00 00 00 00 	lea    0x0(%esi,%eiz,1),%esi

00201d70 <ascii_8>:
  201d70:	55                   	push   %ebp
  201d71:	89 e5                	mov    %esp,%ebp
  201d73:	83 ec 14             	sub    $0x14,%esp
  201d76:	68 34 73 20 00       	push   $0x207334
  201d7b:	e8 e0 ef ff ff       	call   200d60 <printf>
  201d80:	c7 04 24 64 73 20 00 	movl   $0x207364,(%esp)
  201d87:	e8 d4 ef ff ff       	call   200d60 <printf>
  201d8c:	c7 04 24 94 73 20 00 	movl   $0x207394,(%esp)
  201d93:	e8 c8 ef ff ff       	call   200d60 <printf>
  201d98:	c7 04 24 c8 73 20 00 	movl   $0x2073c8,(%esp)
  201d9f:	e8 bc ef ff ff       	call   200d60 <printf>
  201da4:	c7 04 24 00 74 20 00 	movl   $0x207400,(%esp)
  201dab:	e8 b0 ef ff ff       	call   200d60 <printf>
  201db0:	c7 04 24 38 74 20 00 	movl   $0x207438,(%esp)
  201db7:	e8 a4 ef ff ff       	call   200d60 <printf>
  201dbc:	c7 04 24 70 74 20 00 	movl   $0x207470,(%esp)
  201dc3:	e8 98 ef ff ff       	call   200d60 <printf>
  201dc8:	c7 04 24 ac 74 20 00 	movl   $0x2074ac,(%esp)
  201dcf:	e8 8c ef ff ff       	call   200d60 <printf>
  201dd4:	c7 04 24 e8 74 20 00 	movl   $0x2074e8,(%esp)
  201ddb:	e8 80 ef ff ff       	call   200d60 <printf>
  201de0:	c7 04 24 24 75 20 00 	movl   $0x207524,(%esp)
  201de7:	e8 74 ef ff ff       	call   200d60 <printf>
  201dec:	c7 04 24 60 75 20 00 	movl   $0x207560,(%esp)
  201df3:	e8 68 ef ff ff       	call   200d60 <printf>
  201df8:	c7 04 24 9c 75 20 00 	movl   $0x20759c,(%esp)
  201dff:	e8 5c ef ff ff       	call   200d60 <printf>
  201e04:	c7 04 24 d8 75 20 00 	movl   $0x2075d8,(%esp)
  201e0b:	e8 50 ef ff ff       	call   200d60 <printf>
  201e10:	c7 04 24 14 76 20 00 	movl   $0x207614,(%esp)
  201e17:	e8 44 ef ff ff       	call   200d60 <printf>
  201e1c:	c7 04 24 50 76 20 00 	movl   $0x207650,(%esp)
  201e23:	e8 38 ef ff ff       	call   200d60 <printf>
  201e28:	c7 04 24 8c 76 20 00 	movl   $0x20768c,(%esp)
  201e2f:	e8 2c ef ff ff       	call   200d60 <printf>
  201e34:	c7 04 24 c8 76 20 00 	movl   $0x2076c8,(%esp)
  201e3b:	e8 20 ef ff ff       	call   200d60 <printf>
  201e40:	c7 04 24 04 77 20 00 	movl   $0x207704,(%esp)
  201e47:	e8 14 ef ff ff       	call   200d60 <printf>
  201e4c:	c7 04 24 3c 77 20 00 	movl   $0x20773c,(%esp)
  201e53:	e8 08 ef ff ff       	call   200d60 <printf>
  201e58:	c7 04 24 74 77 20 00 	movl   $0x207774,(%esp)
  201e5f:	e8 fc ee ff ff       	call   200d60 <printf>
  201e64:	c7 04 24 a8 77 20 00 	movl   $0x2077a8,(%esp)
  201e6b:	e8 f0 ee ff ff       	call   200d60 <printf>
  201e70:	c7 04 24 dc 77 20 00 	movl   $0x2077dc,(%esp)
  201e77:	e8 e4 ee ff ff       	call   200d60 <printf>
  201e7c:	c7 04 24 0c 78 20 00 	movl   $0x20780c,(%esp)
  201e83:	e8 d8 ee ff ff       	call   200d60 <printf>
  201e88:	c7 04 24 3c 78 20 00 	movl   $0x20783c,(%esp)
  201e8f:	e8 cc ee ff ff       	call   200d60 <printf>
  201e94:	83 c4 10             	add    $0x10,%esp
  201e97:	c9                   	leave
  201e98:	c3                   	ret
  201e99:	8d b4 26 00 00 00 00 	lea    0x0(%esi,%eiz,1),%esi

00201ea0 <ascii_9>:
  201ea0:	55                   	push   %ebp
  201ea1:	89 e5                	mov    %esp,%ebp
  201ea3:	83 ec 14             	sub    $0x14,%esp
  201ea6:	68 7c 78 20 00       	push   $0x20787c
  201eab:	e8 b0 ee ff ff       	call   200d60 <printf>
  201eb0:	c7 04 24 ac 78 20 00 	movl   $0x2078ac,(%esp)
  201eb7:	e8 a4 ee ff ff       	call   200d60 <printf>
  201ebc:	c7 04 24 dc 78 20 00 	movl   $0x2078dc,(%esp)
  201ec3:	e8 98 ee ff ff       	call   200d60 <printf>
  201ec8:	c7 04 24 10 79 20 00 	movl   $0x207910,(%esp)
  201ecf:	e8 8c ee ff ff       	call   200d60 <printf>
  201ed4:	c7 04 24 48 79 20 00 	movl   $0x207948,(%esp)
  201edb:	e8 80 ee ff ff       	call   200d60 <printf>
  201ee0:	c7 04 24 80 79 20 00 	movl   $0x207980,(%esp)
  201ee7:	e8 74 ee ff ff       	call   200d60 <printf>
  201eec:	c7 04 24 b8 79 20 00 	movl   $0x2079b8,(%esp)
  201ef3:	e8 68 ee ff ff       	call   200d60 <printf>
  201ef8:	c7 04 24 f4 79 20 00 	movl   $0x2079f4,(%esp)
  201eff:	e8 5c ee ff ff       	call   200d60 <printf>
  201f04:	c7 04 24 30 7a 20 00 	movl   $0x207a30,(%esp)
  201f0b:	e8 50 ee ff ff       	call   200d60 <printf>
  201f10:	c7 04 24 6c 7a 20 00 	movl   $0x207a6c,(%esp)
  201f17:	e8 44 ee ff ff       	call   200d60 <printf>
  201f1c:	c7 04 24 a8 7a 20 00 	movl   $0x207aa8,(%esp)
  201f23:	e8 38 ee ff ff       	call   200d60 <printf>
  201f28:	c7 04 24 e4 7a 20 00 	movl   $0x207ae4,(%esp)
  201f2f:	e8 2c ee ff ff       	call   200d60 <printf>
  201f34:	c7 04 24 20 7b 20 00 	movl   $0x207b20,(%esp)
  201f3b:	e8 20 ee ff ff       	call   200d60 <printf>
  201f40:	c7 04 24 5c 7b 20 00 	movl   $0x207b5c,(%esp)
  201f47:	e8 14 ee ff ff       	call   200d60 <printf>
  201f4c:	c7 04 24 98 7b 20 00 	movl   $0x207b98,(%esp)
  201f53:	e8 08 ee ff ff       	call   200d60 <printf>
  201f58:	c7 04 24 d4 7b 20 00 	movl   $0x207bd4,(%esp)
  201f5f:	e8 fc ed ff ff       	call   200d60 <printf>
  201f64:	c7 04 24 10 7c 20 00 	movl   $0x207c10,(%esp)
  201f6b:	e8 f0 ed ff ff       	call   200d60 <printf>
  201f70:	c7 04 24 4c 7c 20 00 	movl   $0x207c4c,(%esp)
  201f77:	e8 e4 ed ff ff       	call   200d60 <printf>
  201f7c:	c7 04 24 88 7c 20 00 	movl   $0x207c88,(%esp)
  201f83:	e8 d8 ed ff ff       	call   200d60 <printf>
  201f88:	c7 04 24 c0 7c 20 00 	movl   $0x207cc0,(%esp)
  201f8f:	e8 cc ed ff ff       	call   200d60 <printf>
  201f94:	c7 04 24 f8 7c 20 00 	movl   $0x207cf8,(%esp)
  201f9b:	e8 c0 ed ff ff       	call   200d60 <printf>
  201fa0:	c7 04 24 2c 7d 20 00 	movl   $0x207d2c,(%esp)
  201fa7:	e8 b4 ed ff ff       	call   200d60 <printf>
  201fac:	c7 04 24 60 7d 20 00 	movl   $0x207d60,(%esp)
  201fb3:	e8 a8 ed ff ff       	call   200d60 <printf>
  201fb8:	c7 04 24 90 7d 20 00 	movl   $0x207d90,(%esp)
  201fbf:	e8 9c ed ff ff       	call   200d60 <printf>
  201fc4:	83 c4 10             	add    $0x10,%esp
  201fc7:	c9                   	leave
  201fc8:	c3                   	ret
  201fc9:	8d b4 26 00 00 00 00 	lea    0x0(%esi,%eiz,1),%esi

00201fd0 <ascii_10>:
  201fd0:	55                   	push   %ebp
  201fd1:	89 e5                	mov    %esp,%ebp
  201fd3:	83 ec 14             	sub    $0x14,%esp
  201fd6:	68 d0 7d 20 00       	push   $0x207dd0
  201fdb:	e8 80 ed ff ff       	call   200d60 <printf>
  201fe0:	c7 04 24 00 7e 20 00 	movl   $0x207e00,(%esp)
  201fe7:	e8 74 ed ff ff       	call   200d60 <printf>
  201fec:	c7 04 24 30 7e 20 00 	movl   $0x207e30,(%esp)
  201ff3:	e8 68 ed ff ff       	call   200d60 <printf>
  201ff8:	c7 04 24 64 7e 20 00 	movl   $0x207e64,(%esp)
  201fff:	e8 5c ed ff ff       	call   200d60 <printf>
  202004:	c7 04 24 9c 7e 20 00 	movl   $0x207e9c,(%esp)
  20200b:	e8 50 ed ff ff       	call   200d60 <printf>
  202010:	c7 04 24 d4 7e 20 00 	movl   $0x207ed4,(%esp)
  202017:	e8 44 ed ff ff       	call   200d60 <printf>
  20201c:	c7 04 24 0c 7f 20 00 	movl   $0x207f0c,(%esp)
  202023:	e8 38 ed ff ff       	call   200d60 <printf>
  202028:	c7 04 24 48 7f 20 00 	movl   $0x207f48,(%esp)
  20202f:	e8 2c ed ff ff       	call   200d60 <printf>
  202034:	c7 04 24 84 7f 20 00 	movl   $0x207f84,(%esp)
  20203b:	e8 20 ed ff ff       	call   200d60 <printf>
  202040:	c7 04 24 c0 7f 20 00 	movl   $0x207fc0,(%esp)
  202047:	e8 14 ed ff ff       	call   200d60 <printf>
  20204c:	c7 04 24 fc 7f 20 00 	movl   $0x207ffc,(%esp)
  202053:	e8 08 ed ff ff       	call   200d60 <printf>
  202058:	c7 04 24 38 80 20 00 	movl   $0x208038,(%esp)
  20205f:	e8 fc ec ff ff       	call   200d60 <printf>
  202064:	c7 04 24 74 80 20 00 	movl   $0x208074,(%esp)
  20206b:	e8 f0 ec ff ff       	call   200d60 <printf>
  202070:	c7 04 24 b0 80 20 00 	movl   $0x2080b0,(%esp)
  202077:	e8 e4 ec ff ff       	call   200d60 <printf>
  20207c:	c7 04 24 ec 80 20 00 	movl   $0x2080ec,(%esp)
  202083:	e8 d8 ec ff ff       	call   200d60 <printf>
  202088:	c7 04 24 28 81 20 00 	movl   $0x208128,(%esp)
  20208f:	e8 cc ec ff ff       	call   200d60 <printf>
  202094:	c7 04 24 64 81 20 00 	movl   $0x208164,(%esp)
  20209b:	e8 c0 ec ff ff       	call   200d60 <printf>
  2020a0:	c7 04 24 a0 81 20 00 	movl   $0x2081a0,(%esp)
  2020a7:	e8 b4 ec ff ff       	call   200d60 <printf>
  2020ac:	c7 04 24 d8 81 20 00 	movl   $0x2081d8,(%esp)
  2020b3:	e8 a8 ec ff ff       	call   200d60 <printf>
  2020b8:	c7 04 24 10 82 20 00 	movl   $0x208210,(%esp)
  2020bf:	e8 9c ec ff ff       	call   200d60 <printf>
  2020c4:	c7 04 24 48 82 20 00 	movl   $0x208248,(%esp)
  2020cb:	e8 90 ec ff ff       	call   200d60 <printf>
  2020d0:	c7 04 24 7c 82 20 00 	movl   $0x20827c,(%esp)
  2020d7:	e8 84 ec ff ff       	call   200d60 <printf>
  2020dc:	c7 04 24 ac 82 20 00 	movl   $0x2082ac,(%esp)
  2020e3:	e8 78 ec ff ff       	call   200d60 <printf>
  2020e8:	c7 04 24 dc 82 20 00 	movl   $0x2082dc,(%esp)
  2020ef:	e8 6c ec ff ff       	call   200d60 <printf>
  2020f4:	83 c4 10             	add    $0x10,%esp
  2020f7:	c9                   	leave
  2020f8:	c3                   	ret
  2020f9:	66 90                	xchg   %ax,%ax
  2020fb:	66 90                	xchg   %ax,%ax
  2020fd:	66 90                	xchg   %ax,%ax
  2020ff:	90                   	nop

00202100 <ascii_11>:
  202100:	55                   	push   %ebp
  202101:	89 e5                	mov    %esp,%ebp
  202103:	83 ec 14             	sub    $0x14,%esp
  202106:	68 1c 83 20 00       	push   $0x20831c
  20210b:	e8 50 ec ff ff       	call   200d60 <printf>
  202110:	c7 04 24 4c 83 20 00 	movl   $0x20834c,(%esp)
  202117:	e8 44 ec ff ff       	call   200d60 <printf>
  20211c:	c7 04 24 80 83 20 00 	movl   $0x208380,(%esp)
  202123:	e8 38 ec ff ff       	call   200d60 <printf>
  202128:	c7 04 24 b4 83 20 00 	movl   $0x2083b4,(%esp)
  20212f:	e8 2c ec ff ff       	call   200d60 <printf>
  202134:	c7 04 24 ec 83 20 00 	movl   $0x2083ec,(%esp)
  20213b:	e8 20 ec ff ff       	call   200d60 <printf>
  202140:	c7 04 24 24 84 20 00 	movl   $0x208424,(%esp)
  202147:	e8 14 ec ff ff       	call   200d60 <printf>
  20214c:	c7 04 24 5c 84 20 00 	movl   $0x20845c,(%esp)
  202153:	e8 08 ec ff ff       	call   200d60 <printf>
  202158:	c7 04 24 98 84 20 00 	movl   $0x208498,(%esp)
  20215f:	e8 fc eb ff ff       	call   200d60 <printf>
  202164:	c7 04 24 d4 84 20 00 	movl   $0x2084d4,(%esp)
  20216b:	e8 f0 eb ff ff       	call   200d60 <printf>
  202170:	c7 04 24 10 85 20 00 	movl   $0x208510,(%esp)
  202177:	e8 e4 eb ff ff       	call   200d60 <printf>
  20217c:	c7 04 24 4c 85 20 00 	movl   $0x20854c,(%esp)
  202183:	e8 d8 eb ff ff       	call   200d60 <printf>
  202188:	c7 04 24 88 85 20 00 	movl   $0x208588,(%esp)
  20218f:	e8 cc eb ff ff       	call   200d60 <printf>
  202194:	c7 04 24 c4 85 20 00 	movl   $0x2085c4,(%esp)
  20219b:	e8 c0 eb ff ff       	call   200d60 <printf>
  2021a0:	c7 04 24 00 86 20 00 	movl   $0x208600,(%esp)
  2021a7:	e8 b4 eb ff ff       	call   200d60 <printf>
  2021ac:	c7 04 24 3c 86 20 00 	movl   $0x20863c,(%esp)
  2021b3:	e8 a8 eb ff ff       	call   200d60 <printf>
  2021b8:	c7 04 24 78 86 20 00 	movl   $0x208678,(%esp)
  2021bf:	e8 9c eb ff ff       	call   200d60 <printf>
  2021c4:	c7 04 24 b4 86 20 00 	movl   $0x2086b4,(%esp)
  2021cb:	e8 90 eb ff ff       	call   200d60 <printf>
  2021d0:	c7 04 24 f0 86 20 00 	movl   $0x2086f0,(%esp)
  2021d7:	e8 84 eb ff ff       	call   200d60 <printf>
  2021dc:	c7 04 24 28 87 20 00 	movl   $0x208728,(%esp)
  2021e3:	e8 78 eb ff ff       	call   200d60 <printf>
  2021e8:	c7 04 24 60 87 20 00 	movl   $0x208760,(%esp)
  2021ef:	e8 6c eb ff ff       	call   200d60 <printf>
  2021f4:	c7 04 24 98 87 20 00 	movl   $0x208798,(%esp)
  2021fb:	e8 60 eb ff ff       	call   200d60 <printf>
  202200:	c7 04 24 cc 87 20 00 	movl   $0x2087cc,(%esp)
  202207:	e8 54 eb ff ff       	call   200d60 <printf>
  20220c:	c7 04 24 fc 87 20 00 	movl   $0x2087fc,(%esp)
  202213:	e8 48 eb ff ff       	call   200d60 <printf>
  202218:	c7 04 24 2c 88 20 00 	movl   $0x20882c,(%esp)
  20221f:	e8 3c eb ff ff       	call   200d60 <printf>
  202224:	83 c4 10             	add    $0x10,%esp
  202227:	c9                   	leave
  202228:	c3                   	ret
  202229:	8d b4 26 00 00 00 00 	lea    0x0(%esi,%eiz,1),%esi

00202230 <ascii_12>:
  202230:	55                   	push   %ebp
  202231:	89 e5                	mov    %esp,%ebp
  202233:	83 ec 14             	sub    $0x14,%esp
  202236:	68 6c 88 20 00       	push   $0x20886c
  20223b:	e8 20 eb ff ff       	call   200d60 <printf>
  202240:	c7 04 24 9c 88 20 00 	movl   $0x20889c,(%esp)
  202247:	e8 14 eb ff ff       	call   200d60 <printf>
  20224c:	c7 04 24 d0 88 20 00 	movl   $0x2088d0,(%esp)
  202253:	e8 08 eb ff ff       	call   200d60 <printf>
  202258:	c7 04 24 04 89 20 00 	movl   $0x208904,(%esp)
  20225f:	e8 fc ea ff ff       	call   200d60 <printf>
  202264:	c7 04 24 3c 89 20 00 	movl   $0x20893c,(%esp)
  20226b:	e8 f0 ea ff ff       	call   200d60 <printf>
  202270:	c7 04 24 74 89 20 00 	movl   $0x208974,(%esp)
  202277:	e8 e4 ea ff ff       	call   200d60 <printf>
  20227c:	c7 04 24 ac 89 20 00 	movl   $0x2089ac,(%esp)
  202283:	e8 d8 ea ff ff       	call   200d60 <printf>
  202288:	c7 04 24 e8 89 20 00 	movl   $0x2089e8,(%esp)
  20228f:	e8 cc ea ff ff       	call   200d60 <printf>
  202294:	c7 04 24 24 8a 20 00 	movl   $0x208a24,(%esp)
  20229b:	e8 c0 ea ff ff       	call   200d60 <printf>
  2022a0:	c7 04 24 60 8a 20 00 	movl   $0x208a60,(%esp)
  2022a7:	e8 b4 ea ff ff       	call   200d60 <printf>
  2022ac:	c7 04 24 9c 8a 20 00 	movl   $0x208a9c,(%esp)
  2022b3:	e8 a8 ea ff ff       	call   200d60 <printf>
  2022b8:	c7 04 24 d8 8a 20 00 	movl   $0x208ad8,(%esp)
  2022bf:	e8 9c ea ff ff       	call   200d60 <printf>
  2022c4:	c7 04 24 14 8b 20 00 	movl   $0x208b14,(%esp)
  2022cb:	e8 90 ea ff ff       	call   200d60 <printf>
  2022d0:	c7 04 24 50 8b 20 00 	movl   $0x208b50,(%esp)
  2022d7:	e8 84 ea ff ff       	call   200d60 <printf>
  2022dc:	c7 04 24 8c 8b 20 00 	movl   $0x208b8c,(%esp)
  2022e3:	e8 78 ea ff ff       	call   200d60 <printf>
  2022e8:	c7 04 24 c8 8b 20 00 	movl   $0x208bc8,(%esp)
  2022ef:	e8 6c ea ff ff       	call   200d60 <printf>
  2022f4:	c7 04 24 04 8c 20 00 	movl   $0x208c04,(%esp)
  2022fb:	e8 60 ea ff ff       	call   200d60 <printf>
  202300:	c7 04 24 40 8c 20 00 	movl   $0x208c40,(%esp)
  202307:	e8 54 ea ff ff       	call   200d60 <printf>
  20230c:	c7 04 24 78 8c 20 00 	movl   $0x208c78,(%esp)
  202313:	e8 48 ea ff ff       	call   200d60 <printf>
  202318:	c7 04 24 b0 8c 20 00 	movl   $0x208cb0,(%esp)
  20231f:	e8 3c ea ff ff       	call   200d60 <printf>
  202324:	c7 04 24 e8 8c 20 00 	movl   $0x208ce8,(%esp)
  20232b:	e8 30 ea ff ff       	call   200d60 <printf>
  202330:	c7 04 24 1c 8d 20 00 	movl   $0x208d1c,(%esp)
  202337:	e8 24 ea ff ff       	call   200d60 <printf>
  20233c:	c7 04 24 4c 8d 20 00 	movl   $0x208d4c,(%esp)
  202343:	e8 18 ea ff ff       	call   200d60 <printf>
  202348:	c7 04 24 7c 8d 20 00 	movl   $0x208d7c,(%esp)
  20234f:	e8 0c ea ff ff       	call   200d60 <printf>
  202354:	83 c4 10             	add    $0x10,%esp
  202357:	c9                   	leave
  202358:	c3                   	ret
  202359:	8d b4 26 00 00 00 00 	lea    0x0(%esi,%eiz,1),%esi

00202360 <ascii_13>:
  202360:	55                   	push   %ebp
  202361:	89 e5                	mov    %esp,%ebp
  202363:	83 ec 14             	sub    $0x14,%esp
  202366:	68 bc 8d 20 00       	push   $0x208dbc
  20236b:	e8 f0 e9 ff ff       	call   200d60 <printf>
  202370:	c7 04 24 ec 8d 20 00 	movl   $0x208dec,(%esp)
  202377:	e8 e4 e9 ff ff       	call   200d60 <printf>
  20237c:	c7 04 24 20 8e 20 00 	movl   $0x208e20,(%esp)
  202383:	e8 d8 e9 ff ff       	call   200d60 <printf>
  202388:	c7 04 24 54 8e 20 00 	movl   $0x208e54,(%esp)
  20238f:	e8 cc e9 ff ff       	call   200d60 <printf>
  202394:	c7 04 24 8c 8e 20 00 	movl   $0x208e8c,(%esp)
  20239b:	e8 c0 e9 ff ff       	call   200d60 <printf>
  2023a0:	c7 04 24 c4 8e 20 00 	movl   $0x208ec4,(%esp)
  2023a7:	e8 b4 e9 ff ff       	call   200d60 <printf>
  2023ac:	c7 04 24 fc 8e 20 00 	movl   $0x208efc,(%esp)
  2023b3:	e8 a8 e9 ff ff       	call   200d60 <printf>
  2023b8:	c7 04 24 38 8f 20 00 	movl   $0x208f38,(%esp)
  2023bf:	e8 9c e9 ff ff       	call   200d60 <printf>
  2023c4:	c7 04 24 74 8f 20 00 	movl   $0x208f74,(%esp)
  2023cb:	e8 90 e9 ff ff       	call   200d60 <printf>
  2023d0:	c7 04 24 b0 8f 20 00 	movl   $0x208fb0,(%esp)
  2023d7:	e8 84 e9 ff ff       	call   200d60 <printf>
  2023dc:	c7 04 24 ec 8f 20 00 	movl   $0x208fec,(%esp)
  2023e3:	e8 78 e9 ff ff       	call   200d60 <printf>
  2023e8:	c7 04 24 28 90 20 00 	movl   $0x209028,(%esp)
  2023ef:	e8 6c e9 ff ff       	call   200d60 <printf>
  2023f4:	c7 04 24 64 90 20 00 	movl   $0x209064,(%esp)
  2023fb:	e8 60 e9 ff ff       	call   200d60 <printf>
  202400:	c7 04 24 a0 90 20 00 	movl   $0x2090a0,(%esp)
  202407:	e8 54 e9 ff ff       	call   200d60 <printf>
  20240c:	c7 04 24 dc 90 20 00 	movl   $0x2090dc,(%esp)
  202413:	e8 48 e9 ff ff       	call   200d60 <printf>
  202418:	c7 04 24 18 91 20 00 	movl   $0x209118,(%esp)
  20241f:	e8 3c e9 ff ff       	call   200d60 <printf>
  202424:	c7 04 24 54 91 20 00 	movl   $0x209154,(%esp)
  20242b:	e8 30 e9 ff ff       	call   200d60 <printf>
  202430:	c7 04 24 90 91 20 00 	movl   $0x209190,(%esp)
  202437:	e8 24 e9 ff ff       	call   200d60 <printf>
  20243c:	c7 04 24 c8 91 20 00 	movl   $0x2091c8,(%esp)
  202443:	e8 18 e9 ff ff       	call   200d60 <printf>
  202448:	c7 04 24 00 92 20 00 	movl   $0x209200,(%esp)
  20244f:	e8 0c e9 ff ff       	call   200d60 <printf>
  202454:	c7 04 24 38 92 20 00 	movl   $0x209238,(%esp)
  20245b:	e8 00 e9 ff ff       	call   200d60 <printf>
  202460:	c7 04 24 6c 92 20 00 	movl   $0x20926c,(%esp)
  202467:	e8 f4 e8 ff ff       	call   200d60 <printf>
  20246c:	c7 04 24 9c 92 20 00 	movl   $0x20929c,(%esp)
  202473:	e8 e8 e8 ff ff       	call   200d60 <printf>
  202478:	c7 04 24 cc 92 20 00 	movl   $0x2092cc,(%esp)
  20247f:	e8 dc e8 ff ff       	call   200d60 <printf>
  202484:	83 c4 10             	add    $0x10,%esp
  202487:	c9                   	leave
  202488:	c3                   	ret
  202489:	8d b4 26 00 00 00 00 	lea    0x0(%esi,%eiz,1),%esi

00202490 <ascii_14>:
  202490:	55                   	push   %ebp
  202491:	89 e5                	mov    %esp,%ebp
  202493:	83 ec 14             	sub    $0x14,%esp
  202496:	68 0c 93 20 00       	push   $0x20930c
  20249b:	e8 c0 e8 ff ff       	call   200d60 <printf>
  2024a0:	c7 04 24 3c 93 20 00 	movl   $0x20933c,(%esp)
  2024a7:	e8 b4 e8 ff ff       	call   200d60 <printf>
  2024ac:	c7 04 24 70 93 20 00 	movl   $0x209370,(%esp)
  2024b3:	e8 a8 e8 ff ff       	call   200d60 <printf>
  2024b8:	c7 04 24 a4 93 20 00 	movl   $0x2093a4,(%esp)
  2024bf:	e8 9c e8 ff ff       	call   200d60 <printf>
  2024c4:	c7 04 24 dc 93 20 00 	movl   $0x2093dc,(%esp)
  2024cb:	e8 90 e8 ff ff       	call   200d60 <printf>
  2024d0:	c7 04 24 14 94 20 00 	movl   $0x209414,(%esp)
  2024d7:	e8 84 e8 ff ff       	call   200d60 <printf>
  2024dc:	c7 04 24 4c 94 20 00 	movl   $0x20944c,(%esp)
  2024e3:	e8 78 e8 ff ff       	call   200d60 <printf>
  2024e8:	c7 04 24 88 94 20 00 	movl   $0x209488,(%esp)
  2024ef:	e8 6c e8 ff ff       	call   200d60 <printf>
  2024f4:	c7 04 24 c4 94 20 00 	movl   $0x2094c4,(%esp)
  2024fb:	e8 60 e8 ff ff       	call   200d60 <printf>
  202500:	c7 04 24 00 95 20 00 	movl   $0x209500,(%esp)
  202507:	e8 54 e8 ff ff       	call   200d60 <printf>
  20250c:	c7 04 24 3c 95 20 00 	movl   $0x20953c,(%esp)
  202513:	e8 48 e8 ff ff       	call   200d60 <printf>
  202518:	c7 04 24 78 95 20 00 	movl   $0x209578,(%esp)
  20251f:	e8 3c e8 ff ff       	call   200d60 <printf>
  202524:	c7 04 24 b4 95 20 00 	movl   $0x2095b4,(%esp)
  20252b:	e8 30 e8 ff ff       	call   200d60 <printf>
  202530:	c7 04 24 f0 95 20 00 	movl   $0x2095f0,(%esp)
  202537:	e8 24 e8 ff ff       	call   200d60 <printf>
  20253c:	c7 04 24 2c 96 20 00 	movl   $0x20962c,(%esp)
  202543:	e8 18 e8 ff ff       	call   200d60 <printf>
  202548:	c7 04 24 68 96 20 00 	movl   $0x209668,(%esp)
  20254f:	e8 0c e8 ff ff       	call   200d60 <printf>
  202554:	c7 04 24 a4 96 20 00 	movl   $0x2096a4,(%esp)
  20255b:	e8 00 e8 ff ff       	call   200d60 <printf>
  202560:	c7 04 24 e0 96 20 00 	movl   $0x2096e0,(%esp)
  202567:	e8 f4 e7 ff ff       	call   200d60 <printf>
  20256c:	c7 04 24 18 97 20 00 	movl   $0x209718,(%esp)
  202573:	e8 e8 e7 ff ff       	call   200d60 <printf>
  202578:	c7 04 24 50 97 20 00 	movl   $0x209750,(%esp)
  20257f:	e8 dc e7 ff ff       	call   200d60 <printf>
  202584:	c7 04 24 88 97 20 00 	movl   $0x209788,(%esp)
  20258b:	e8 d0 e7 ff ff       	call   200d60 <printf>
  202590:	c7 04 24 bc 97 20 00 	movl   $0x2097bc,(%esp)
  202597:	e8 c4 e7 ff ff       	call   200d60 <printf>
  20259c:	c7 04 24 ec 97 20 00 	movl   $0x2097ec,(%esp)
  2025a3:	e8 b8 e7 ff ff       	call   200d60 <printf>
  2025a8:	c7 04 24 1c 98 20 00 	movl   $0x20981c,(%esp)
  2025af:	e8 ac e7 ff ff       	call   200d60 <printf>
  2025b4:	83 c4 10             	add    $0x10,%esp
  2025b7:	c9                   	leave
  2025b8:	c3                   	ret
  2025b9:	8d b4 26 00 00 00 00 	lea    0x0(%esi,%eiz,1),%esi

002025c0 <ascii_15>:
  2025c0:	55                   	push   %ebp
  2025c1:	89 e5                	mov    %esp,%ebp
  2025c3:	83 ec 14             	sub    $0x14,%esp
  2025c6:	68 5c 98 20 00       	push   $0x20985c
  2025cb:	e8 90 e7 ff ff       	call   200d60 <printf>
  2025d0:	c7 04 24 8c 98 20 00 	movl   $0x20988c,(%esp)
  2025d7:	e8 84 e7 ff ff       	call   200d60 <printf>
  2025dc:	c7 04 24 c0 98 20 00 	movl   $0x2098c0,(%esp)
  2025e3:	e8 78 e7 ff ff       	call   200d60 <printf>
  2025e8:	c7 04 24 f4 98 20 00 	movl   $0x2098f4,(%esp)
  2025ef:	e8 6c e7 ff ff       	call   200d60 <printf>
  2025f4:	c7 04 24 2c 99 20 00 	movl   $0x20992c,(%esp)
  2025fb:	e8 60 e7 ff ff       	call   200d60 <printf>
  202600:	c7 04 24 64 99 20 00 	movl   $0x209964,(%esp)
  202607:	e8 54 e7 ff ff       	call   200d60 <printf>
  20260c:	c7 04 24 9c 99 20 00 	movl   $0x20999c,(%esp)
  202613:	e8 48 e7 ff ff       	call   200d60 <printf>
  202618:	c7 04 24 d8 99 20 00 	movl   $0x2099d8,(%esp)
  20261f:	e8 3c e7 ff ff       	call   200d60 <printf>
  202624:	c7 04 24 14 9a 20 00 	movl   $0x209a14,(%esp)
  20262b:	e8 30 e7 ff ff       	call   200d60 <printf>
  202630:	c7 04 24 50 9a 20 00 	movl   $0x209a50,(%esp)
  202637:	e8 24 e7 ff ff       	call   200d60 <printf>
  20263c:	c7 04 24 8c 9a 20 00 	movl   $0x209a8c,(%esp)
  202643:	e8 18 e7 ff ff       	call   200d60 <printf>
  202648:	c7 04 24 c8 9a 20 00 	movl   $0x209ac8,(%esp)
  20264f:	e8 0c e7 ff ff       	call   200d60 <printf>
  202654:	c7 04 24 04 9b 20 00 	movl   $0x209b04,(%esp)
  20265b:	e8 00 e7 ff ff       	call   200d60 <printf>
  202660:	c7 04 24 40 9b 20 00 	movl   $0x209b40,(%esp)
  202667:	e8 f4 e6 ff ff       	call   200d60 <printf>
  20266c:	c7 04 24 7c 9b 20 00 	movl   $0x209b7c,(%esp)
  202673:	e8 e8 e6 ff ff       	call   200d60 <printf>
  202678:	c7 04 24 b8 9b 20 00 	movl   $0x209bb8,(%esp)
  20267f:	e8 dc e6 ff ff       	call   200d60 <printf>
  202684:	c7 04 24 f4 9b 20 00 	movl   $0x209bf4,(%esp)
  20268b:	e8 d0 e6 ff ff       	call   200d60 <printf>
  202690:	c7 04 24 30 9c 20 00 	movl   $0x209c30,(%esp)
  202697:	e8 c4 e6 ff ff       	call   200d60 <printf>
  20269c:	c7 04 24 68 9c 20 00 	movl   $0x209c68,(%esp)
  2026a3:	e8 b8 e6 ff ff       	call   200d60 <printf>
  2026a8:	c7 04 24 a0 9c 20 00 	movl   $0x209ca0,(%esp)
  2026af:	e8 ac e6 ff ff       	call   200d60 <printf>
  2026b4:	c7 04 24 88 97 20 00 	movl   $0x209788,(%esp)
  2026bb:	e8 a0 e6 ff ff       	call   200d60 <printf>
  2026c0:	c7 04 24 d8 9c 20 00 	movl   $0x209cd8,(%esp)
  2026c7:	e8 94 e6 ff ff       	call   200d60 <printf>
  2026cc:	c7 04 24 08 9d 20 00 	movl   $0x209d08,(%esp)
  2026d3:	e8 88 e6 ff ff       	call   200d60 <printf>
  2026d8:	c7 04 24 38 9d 20 00 	movl   $0x209d38,(%esp)
  2026df:	e8 7c e6 ff ff       	call   200d60 <printf>
  2026e4:	83 c4 10             	add    $0x10,%esp
  2026e7:	c9                   	leave
  2026e8:	c3                   	ret
  2026e9:	66 90                	xchg   %ax,%ax
  2026eb:	66 90                	xchg   %ax,%ax
  2026ed:	66 90                	xchg   %ax,%ax
  2026ef:	90                   	nop

002026f0 <ascii_16>:
  2026f0:	55                   	push   %ebp
  2026f1:	89 e5                	mov    %esp,%ebp
  2026f3:	83 ec 14             	sub    $0x14,%esp
  2026f6:	68 78 9d 20 00       	push   $0x209d78
  2026fb:	e8 60 e6 ff ff       	call   200d60 <printf>
  202700:	c7 04 24 a8 9d 20 00 	movl   $0x209da8,(%esp)
  202707:	e8 54 e6 ff ff       	call   200d60 <printf>
  20270c:	c7 04 24 dc 9d 20 00 	movl   $0x209ddc,(%esp)
  202713:	e8 48 e6 ff ff       	call   200d60 <printf>
  202718:	c7 04 24 10 9e 20 00 	movl   $0x209e10,(%esp)
  20271f:	e8 3c e6 ff ff       	call   200d60 <printf>
  202724:	c7 04 24 48 9e 20 00 	movl   $0x209e48,(%esp)
  20272b:	e8 30 e6 ff ff       	call   200d60 <printf>
  202730:	c7 04 24 80 9e 20 00 	movl   $0x209e80,(%esp)
  202737:	e8 24 e6 ff ff       	call   200d60 <printf>
  20273c:	c7 04 24 b8 9e 20 00 	movl   $0x209eb8,(%esp)
  202743:	e8 18 e6 ff ff       	call   200d60 <printf>
  202748:	c7 04 24 f4 9e 20 00 	movl   $0x209ef4,(%esp)
  20274f:	e8 0c e6 ff ff       	call   200d60 <printf>
  202754:	c7 04 24 30 9f 20 00 	movl   $0x209f30,(%esp)
  20275b:	e8 00 e6 ff ff       	call   200d60 <printf>
  202760:	c7 04 24 6c 9f 20 00 	movl   $0x209f6c,(%esp)
  202767:	e8 f4 e5 ff ff       	call   200d60 <printf>
  20276c:	c7 04 24 a8 9f 20 00 	movl   $0x209fa8,(%esp)
  202773:	e8 e8 e5 ff ff       	call   200d60 <printf>
  202778:	c7 04 24 e4 9f 20 00 	movl   $0x209fe4,(%esp)
  20277f:	e8 dc e5 ff ff       	call   200d60 <printf>
  202784:	c7 04 24 20 a0 20 00 	movl   $0x20a020,(%esp)
  20278b:	e8 d0 e5 ff ff       	call   200d60 <printf>
  202790:	c7 04 24 5c a0 20 00 	movl   $0x20a05c,(%esp)
  202797:	e8 c4 e5 ff ff       	call   200d60 <printf>
  20279c:	c7 04 24 98 a0 20 00 	movl   $0x20a098,(%esp)
  2027a3:	e8 b8 e5 ff ff       	call   200d60 <printf>
  2027a8:	c7 04 24 d4 a0 20 00 	movl   $0x20a0d4,(%esp)
  2027af:	e8 ac e5 ff ff       	call   200d60 <printf>
  2027b4:	c7 04 24 10 a1 20 00 	movl   $0x20a110,(%esp)
  2027bb:	e8 a0 e5 ff ff       	call   200d60 <printf>
  2027c0:	c7 04 24 4c a1 20 00 	movl   $0x20a14c,(%esp)
  2027c7:	e8 94 e5 ff ff       	call   200d60 <printf>
  2027cc:	c7 04 24 88 a1 20 00 	movl   $0x20a188,(%esp)
  2027d3:	e8 88 e5 ff ff       	call   200d60 <printf>
  2027d8:	c7 04 24 c0 a1 20 00 	movl   $0x20a1c0,(%esp)
  2027df:	e8 7c e5 ff ff       	call   200d60 <printf>
  2027e4:	c7 04 24 f8 a1 20 00 	movl   $0x20a1f8,(%esp)
  2027eb:	e8 70 e5 ff ff       	call   200d60 <printf>
  2027f0:	c7 04 24 2c a2 20 00 	movl   $0x20a22c,(%esp)
  2027f7:	e8 64 e5 ff ff       	call   200d60 <printf>
  2027fc:	c7 04 24 60 a2 20 00 	movl   $0x20a260,(%esp)
  202803:	e8 58 e5 ff ff       	call   200d60 <printf>
  202808:	c7 04 24 90 a2 20 00 	movl   $0x20a290,(%esp)
  20280f:	e8 4c e5 ff ff       	call   200d60 <printf>
  202814:	83 c4 10             	add    $0x10,%esp
  202817:	c9                   	leave
  202818:	c3                   	ret
  202819:	8d b4 26 00 00 00 00 	lea    0x0(%esi,%eiz,1),%esi

00202820 <ascii_17>:
  202820:	55                   	push   %ebp
  202821:	89 e5                	mov    %esp,%ebp
  202823:	83 ec 14             	sub    $0x14,%esp
  202826:	68 d0 a2 20 00       	push   $0x20a2d0
  20282b:	e8 30 e5 ff ff       	call   200d60 <printf>
  202830:	c7 04 24 00 a3 20 00 	movl   $0x20a300,(%esp)
  202837:	e8 24 e5 ff ff       	call   200d60 <printf>
  20283c:	c7 04 24 34 a3 20 00 	movl   $0x20a334,(%esp)
  202843:	e8 18 e5 ff ff       	call   200d60 <printf>
  202848:	c7 04 24 68 a3 20 00 	movl   $0x20a368,(%esp)
  20284f:	e8 0c e5 ff ff       	call   200d60 <printf>
  202854:	c7 04 24 a0 a3 20 00 	movl   $0x20a3a0,(%esp)
  20285b:	e8 00 e5 ff ff       	call   200d60 <printf>
  202860:	c7 04 24 d8 a3 20 00 	movl   $0x20a3d8,(%esp)
  202867:	e8 f4 e4 ff ff       	call   200d60 <printf>
  20286c:	c7 04 24 10 a4 20 00 	movl   $0x20a410,(%esp)
  202873:	e8 e8 e4 ff ff       	call   200d60 <printf>
  202878:	c7 04 24 4c a4 20 00 	movl   $0x20a44c,(%esp)
  20287f:	e8 dc e4 ff ff       	call   200d60 <printf>
  202884:	c7 04 24 88 a4 20 00 	movl   $0x20a488,(%esp)
  20288b:	e8 d0 e4 ff ff       	call   200d60 <printf>
  202890:	c7 04 24 c4 a4 20 00 	movl   $0x20a4c4,(%esp)
  202897:	e8 c4 e4 ff ff       	call   200d60 <printf>
  20289c:	c7 04 24 00 a5 20 00 	movl   $0x20a500,(%esp)
  2028a3:	e8 b8 e4 ff ff       	call   200d60 <printf>
  2028a8:	c7 04 24 3c a5 20 00 	movl   $0x20a53c,(%esp)
  2028af:	e8 ac e4 ff ff       	call   200d60 <printf>
  2028b4:	c7 04 24 78 a5 20 00 	movl   $0x20a578,(%esp)
  2028bb:	e8 a0 e4 ff ff       	call   200d60 <printf>
  2028c0:	c7 04 24 b4 a5 20 00 	movl   $0x20a5b4,(%esp)
  2028c7:	e8 94 e4 ff ff       	call   200d60 <printf>
  2028cc:	c7 04 24 f0 a5 20 00 	movl   $0x20a5f0,(%esp)
  2028d3:	e8 88 e4 ff ff       	call   200d60 <printf>
  2028d8:	c7 04 24 2c a6 20 00 	movl   $0x20a62c,(%esp)
  2028df:	e8 7c e4 ff ff       	call   200d60 <printf>
  2028e4:	c7 04 24 68 a6 20 00 	movl   $0x20a668,(%esp)
  2028eb:	e8 70 e4 ff ff       	call   200d60 <printf>
  2028f0:	c7 04 24 a4 a6 20 00 	movl   $0x20a6a4,(%esp)
  2028f7:	e8 64 e4 ff ff       	call   200d60 <printf>
  2028fc:	c7 04 24 dc a6 20 00 	movl   $0x20a6dc,(%esp)
  202903:	e8 58 e4 ff ff       	call   200d60 <printf>
  202908:	c7 04 24 14 a7 20 00 	movl   $0x20a714,(%esp)
  20290f:	e8 4c e4 ff ff       	call   200d60 <printf>
  202914:	c7 04 24 4c a7 20 00 	movl   $0x20a74c,(%esp)
  20291b:	e8 40 e4 ff ff       	call   200d60 <printf>
  202920:	c7 04 24 6c 92 20 00 	movl   $0x20926c,(%esp)
  202927:	e8 34 e4 ff ff       	call   200d60 <printf>
  20292c:	c7 04 24 80 a7 20 00 	movl   $0x20a780,(%esp)
  202933:	e8 28 e4 ff ff       	call   200d60 <printf>
  202938:	c7 04 24 b0 a7 20 00 	movl   $0x20a7b0,(%esp)
  20293f:	e8 1c e4 ff ff       	call   200d60 <printf>
  202944:	83 c4 10             	add    $0x10,%esp
  202947:	c9                   	leave
  202948:	c3                   	ret
  202949:	8d b4 26 00 00 00 00 	lea    0x0(%esi,%eiz,1),%esi

00202950 <ascii_18>:
  202950:	55                   	push   %ebp
  202951:	89 e5                	mov    %esp,%ebp
  202953:	83 ec 14             	sub    $0x14,%esp
  202956:	68 f0 a7 20 00       	push   $0x20a7f0
  20295b:	e8 00 e4 ff ff       	call   200d60 <printf>
  202960:	c7 04 24 20 a8 20 00 	movl   $0x20a820,(%esp)
  202967:	e8 f4 e3 ff ff       	call   200d60 <printf>
  20296c:	c7 04 24 54 a8 20 00 	movl   $0x20a854,(%esp)
  202973:	e8 e8 e3 ff ff       	call   200d60 <printf>
  202978:	c7 04 24 88 a8 20 00 	movl   $0x20a888,(%esp)
  20297f:	e8 dc e3 ff ff       	call   200d60 <printf>
  202984:	c7 04 24 c0 a8 20 00 	movl   $0x20a8c0,(%esp)
  20298b:	e8 d0 e3 ff ff       	call   200d60 <printf>
  202990:	c7 04 24 f8 a8 20 00 	movl   $0x20a8f8,(%esp)
  202997:	e8 c4 e3 ff ff       	call   200d60 <printf>
  20299c:	c7 04 24 30 a9 20 00 	movl   $0x20a930,(%esp)
  2029a3:	e8 b8 e3 ff ff       	call   200d60 <printf>
  2029a8:	c7 04 24 6c a9 20 00 	movl   $0x20a96c,(%esp)
  2029af:	e8 ac e3 ff ff       	call   200d60 <printf>
  2029b4:	c7 04 24 a8 a9 20 00 	movl   $0x20a9a8,(%esp)
  2029bb:	e8 a0 e3 ff ff       	call   200d60 <printf>
  2029c0:	c7 04 24 e4 a9 20 00 	movl   $0x20a9e4,(%esp)
  2029c7:	e8 94 e3 ff ff       	call   200d60 <printf>
  2029cc:	c7 04 24 20 aa 20 00 	movl   $0x20aa20,(%esp)
  2029d3:	e8 88 e3 ff ff       	call   200d60 <printf>
  2029d8:	c7 04 24 5c aa 20 00 	movl   $0x20aa5c,(%esp)
  2029df:	e8 7c e3 ff ff       	call   200d60 <printf>
  2029e4:	c7 04 24 98 aa 20 00 	movl   $0x20aa98,(%esp)
  2029eb:	e8 70 e3 ff ff       	call   200d60 <printf>
  2029f0:	c7 04 24 d4 aa 20 00 	movl   $0x20aad4,(%esp)
  2029f7:	e8 64 e3 ff ff       	call   200d60 <printf>
  2029fc:	c7 04 24 10 ab 20 00 	movl   $0x20ab10,(%esp)
  202a03:	e8 58 e3 ff ff       	call   200d60 <printf>
  202a08:	c7 04 24 4c ab 20 00 	movl   $0x20ab4c,(%esp)
  202a0f:	e8 4c e3 ff ff       	call   200d60 <printf>
  202a14:	c7 04 24 88 ab 20 00 	movl   $0x20ab88,(%esp)
  202a1b:	e8 40 e3 ff ff       	call   200d60 <printf>
  202a20:	c7 04 24 c4 ab 20 00 	movl   $0x20abc4,(%esp)
  202a27:	e8 34 e3 ff ff       	call   200d60 <printf>
  202a2c:	c7 04 24 fc ab 20 00 	movl   $0x20abfc,(%esp)
  202a33:	e8 28 e3 ff ff       	call   200d60 <printf>
  202a38:	c7 04 24 34 ac 20 00 	movl   $0x20ac34,(%esp)
  202a3f:	e8 1c e3 ff ff       	call   200d60 <printf>
  202a44:	c7 04 24 6c ac 20 00 	movl   $0x20ac6c,(%esp)
  202a4b:	e8 10 e3 ff ff       	call   200d60 <printf>
  202a50:	c7 04 24 a0 ac 20 00 	movl   $0x20aca0,(%esp)
  202a57:	e8 04 e3 ff ff       	call   200d60 <printf>
  202a5c:	c7 04 24 d0 ac 20 00 	movl   $0x20acd0,(%esp)
  202a63:	e8 f8 e2 ff ff       	call   200d60 <printf>
  202a68:	c7 04 24 00 ad 20 00 	movl   $0x20ad00,(%esp)
  202a6f:	e8 ec e2 ff ff       	call   200d60 <printf>
  202a74:	83 c4 10             	add    $0x10,%esp
  202a77:	c9                   	leave
  202a78:	c3                   	ret
  202a79:	8d b4 26 00 00 00 00 	lea    0x0(%esi,%eiz,1),%esi

00202a80 <ascii_19>:
  202a80:	55                   	push   %ebp
  202a81:	89 e5                	mov    %esp,%ebp
  202a83:	83 ec 14             	sub    $0x14,%esp
  202a86:	68 40 ad 20 00       	push   $0x20ad40
  202a8b:	e8 d0 e2 ff ff       	call   200d60 <printf>
  202a90:	c7 04 24 70 ad 20 00 	movl   $0x20ad70,(%esp)
  202a97:	e8 c4 e2 ff ff       	call   200d60 <printf>
  202a9c:	c7 04 24 a4 ad 20 00 	movl   $0x20ada4,(%esp)
  202aa3:	e8 b8 e2 ff ff       	call   200d60 <printf>
  202aa8:	c7 04 24 d8 ad 20 00 	movl   $0x20add8,(%esp)
  202aaf:	e8 ac e2 ff ff       	call   200d60 <printf>
  202ab4:	c7 04 24 10 ae 20 00 	movl   $0x20ae10,(%esp)
  202abb:	e8 a0 e2 ff ff       	call   200d60 <printf>
  202ac0:	c7 04 24 48 ae 20 00 	movl   $0x20ae48,(%esp)
  202ac7:	e8 94 e2 ff ff       	call   200d60 <printf>
  202acc:	c7 04 24 80 ae 20 00 	movl   $0x20ae80,(%esp)
  202ad3:	e8 88 e2 ff ff       	call   200d60 <printf>
  202ad8:	c7 04 24 bc ae 20 00 	movl   $0x20aebc,(%esp)
  202adf:	e8 7c e2 ff ff       	call   200d60 <printf>
  202ae4:	c7 04 24 f8 ae 20 00 	movl   $0x20aef8,(%esp)
  202aeb:	e8 70 e2 ff ff       	call   200d60 <printf>
  202af0:	c7 04 24 34 af 20 00 	movl   $0x20af34,(%esp)
  202af7:	e8 64 e2 ff ff       	call   200d60 <printf>
  202afc:	c7 04 24 70 af 20 00 	movl   $0x20af70,(%esp)
  202b03:	e8 58 e2 ff ff       	call   200d60 <printf>
  202b08:	c7 04 24 ac af 20 00 	movl   $0x20afac,(%esp)
  202b0f:	e8 4c e2 ff ff       	call   200d60 <printf>
  202b14:	c7 04 24 e8 af 20 00 	movl   $0x20afe8,(%esp)
  202b1b:	e8 40 e2 ff ff       	call   200d60 <printf>
  202b20:	c7 04 24 24 b0 20 00 	movl   $0x20b024,(%esp)
  202b27:	e8 34 e2 ff ff       	call   200d60 <printf>
  202b2c:	c7 04 24 60 b0 20 00 	movl   $0x20b060,(%esp)
  202b33:	e8 28 e2 ff ff       	call   200d60 <printf>
  202b38:	c7 04 24 9c b0 20 00 	movl   $0x20b09c,(%esp)
  202b3f:	e8 1c e2 ff ff       	call   200d60 <printf>
  202b44:	c7 04 24 d8 b0 20 00 	movl   $0x20b0d8,(%esp)
  202b4b:	e8 10 e2 ff ff       	call   200d60 <printf>
  202b50:	c7 04 24 14 b1 20 00 	movl   $0x20b114,(%esp)
  202b57:	e8 04 e2 ff ff       	call   200d60 <printf>
  202b5c:	c7 04 24 4c b1 20 00 	movl   $0x20b14c,(%esp)
  202b63:	e8 f8 e1 ff ff       	call   200d60 <printf>
  202b68:	c7 04 24 84 b1 20 00 	movl   $0x20b184,(%esp)
  202b6f:	e8 ec e1 ff ff       	call   200d60 <printf>
  202b74:	c7 04 24 bc b1 20 00 	movl   $0x20b1bc,(%esp)
  202b7b:	e8 e0 e1 ff ff       	call   200d60 <printf>
  202b80:	c7 04 24 f0 b1 20 00 	movl   $0x20b1f0,(%esp)
  202b87:	e8 d4 e1 ff ff       	call   200d60 <printf>
  202b8c:	c7 04 24 20 b2 20 00 	movl   $0x20b220,(%esp)
  202b93:	e8 c8 e1 ff ff       	call   200d60 <printf>
  202b98:	c7 04 24 50 b2 20 00 	movl   $0x20b250,(%esp)
  202b9f:	e8 bc e1 ff ff       	call   200d60 <printf>
  202ba4:	83 c4 10             	add    $0x10,%esp
  202ba7:	c9                   	leave
  202ba8:	c3                   	ret
  202ba9:	8d b4 26 00 00 00 00 	lea    0x0(%esi,%eiz,1),%esi

00202bb0 <ascii_20>:
  202bb0:	55                   	push   %ebp
  202bb1:	89 e5                	mov    %esp,%ebp
  202bb3:	83 ec 14             	sub    $0x14,%esp
  202bb6:	68 90 b2 20 00       	push   $0x20b290
  202bbb:	e8 a0 e1 ff ff       	call   200d60 <printf>
  202bc0:	c7 04 24 c0 b2 20 00 	movl   $0x20b2c0,(%esp)
  202bc7:	e8 94 e1 ff ff       	call   200d60 <printf>
  202bcc:	c7 04 24 f4 b2 20 00 	movl   $0x20b2f4,(%esp)
  202bd3:	e8 88 e1 ff ff       	call   200d60 <printf>
  202bd8:	c7 04 24 28 b3 20 00 	movl   $0x20b328,(%esp)
  202bdf:	e8 7c e1 ff ff       	call   200d60 <printf>
  202be4:	c7 04 24 60 b3 20 00 	movl   $0x20b360,(%esp)
  202beb:	e8 70 e1 ff ff       	call   200d60 <printf>
  202bf0:	c7 04 24 98 b3 20 00 	movl   $0x20b398,(%esp)
  202bf7:	e8 64 e1 ff ff       	call   200d60 <printf>
  202bfc:	c7 04 24 d0 b3 20 00 	movl   $0x20b3d0,(%esp)
  202c03:	e8 58 e1 ff ff       	call   200d60 <printf>
  202c08:	c7 04 24 0c b4 20 00 	movl   $0x20b40c,(%esp)
  202c0f:	e8 4c e1 ff ff       	call   200d60 <printf>
  202c14:	c7 04 24 48 b4 20 00 	movl   $0x20b448,(%esp)
  202c1b:	e8 40 e1 ff ff       	call   200d60 <printf>
  202c20:	c7 04 24 84 b4 20 00 	movl   $0x20b484,(%esp)
  202c27:	e8 34 e1 ff ff       	call   200d60 <printf>
  202c2c:	c7 04 24 c0 b4 20 00 	movl   $0x20b4c0,(%esp)
  202c33:	e8 28 e1 ff ff       	call   200d60 <printf>
  202c38:	c7 04 24 fc b4 20 00 	movl   $0x20b4fc,(%esp)
  202c3f:	e8 1c e1 ff ff       	call   200d60 <printf>
  202c44:	c7 04 24 38 b5 20 00 	movl   $0x20b538,(%esp)
  202c4b:	e8 10 e1 ff ff       	call   200d60 <printf>
  202c50:	c7 04 24 74 b5 20 00 	movl   $0x20b574,(%esp)
  202c57:	e8 04 e1 ff ff       	call   200d60 <printf>
  202c5c:	c7 04 24 b0 b5 20 00 	movl   $0x20b5b0,(%esp)
  202c63:	e8 f8 e0 ff ff       	call   200d60 <printf>
  202c68:	c7 04 24 ec b5 20 00 	movl   $0x20b5ec,(%esp)
  202c6f:	e8 ec e0 ff ff       	call   200d60 <printf>
  202c74:	c7 04 24 28 b6 20 00 	movl   $0x20b628,(%esp)
  202c7b:	e8 e0 e0 ff ff       	call   200d60 <printf>
  202c80:	c7 04 24 64 b6 20 00 	movl   $0x20b664,(%esp)
  202c87:	e8 d4 e0 ff ff       	call   200d60 <printf>
  202c8c:	c7 04 24 9c b6 20 00 	movl   $0x20b69c,(%esp)
  202c93:	e8 c8 e0 ff ff       	call   200d60 <printf>
  202c98:	c7 04 24 d4 b6 20 00 	movl   $0x20b6d4,(%esp)
  202c9f:	e8 bc e0 ff ff       	call   200d60 <printf>
  202ca4:	c7 04 24 0c b7 20 00 	movl   $0x20b70c,(%esp)
  202cab:	e8 b0 e0 ff ff       	call   200d60 <printf>
  202cb0:	c7 04 24 40 b7 20 00 	movl   $0x20b740,(%esp)
  202cb7:	e8 a4 e0 ff ff       	call   200d60 <printf>
  202cbc:	c7 04 24 70 b7 20 00 	movl   $0x20b770,(%esp)
  202cc3:	e8 98 e0 ff ff       	call   200d60 <printf>
  202cc8:	c7 04 24 a0 b7 20 00 	movl   $0x20b7a0,(%esp)
  202ccf:	e8 8c e0 ff ff       	call   200d60 <printf>
  202cd4:	83 c4 10             	add    $0x10,%esp
  202cd7:	c9                   	leave
  202cd8:	c3                   	ret
  202cd9:	66 90                	xchg   %ax,%ax
  202cdb:	66 90                	xchg   %ax,%ax
  202cdd:	66 90                	xchg   %ax,%ax
  202cdf:	90                   	nop

00202ce0 <ascii_21>:
  202ce0:	55                   	push   %ebp
  202ce1:	89 e5                	mov    %esp,%ebp
  202ce3:	83 ec 14             	sub    $0x14,%esp
  202ce6:	68 e0 b7 20 00       	push   $0x20b7e0
  202ceb:	e8 70 e0 ff ff       	call   200d60 <printf>
  202cf0:	c7 04 24 10 b8 20 00 	movl   $0x20b810,(%esp)
  202cf7:	e8 64 e0 ff ff       	call   200d60 <printf>
  202cfc:	c7 04 24 40 b8 20 00 	movl   $0x20b840,(%esp)
  202d03:	e8 58 e0 ff ff       	call   200d60 <printf>
  202d08:	c7 04 24 74 b8 20 00 	movl   $0x20b874,(%esp)
  202d0f:	e8 4c e0 ff ff       	call   200d60 <printf>
  202d14:	c7 04 24 ac b8 20 00 	movl   $0x20b8ac,(%esp)
  202d1b:	e8 40 e0 ff ff       	call   200d60 <printf>
  202d20:	c7 04 24 e4 b8 20 00 	movl   $0x20b8e4,(%esp)
  202d27:	e8 34 e0 ff ff       	call   200d60 <printf>
  202d2c:	c7 04 24 1c b9 20 00 	movl   $0x20b91c,(%esp)
  202d33:	e8 28 e0 ff ff       	call   200d60 <printf>
  202d38:	c7 04 24 58 b9 20 00 	movl   $0x20b958,(%esp)
  202d3f:	e8 1c e0 ff ff       	call   200d60 <printf>
  202d44:	c7 04 24 94 b9 20 00 	movl   $0x20b994,(%esp)
  202d4b:	e8 10 e0 ff ff       	call   200d60 <printf>
  202d50:	c7 04 24 d0 b9 20 00 	movl   $0x20b9d0,(%esp)
  202d57:	e8 04 e0 ff ff       	call   200d60 <printf>
  202d5c:	c7 04 24 0c ba 20 00 	movl   $0x20ba0c,(%esp)
  202d63:	e8 f8 df ff ff       	call   200d60 <printf>
  202d68:	c7 04 24 48 ba 20 00 	movl   $0x20ba48,(%esp)
  202d6f:	e8 ec df ff ff       	call   200d60 <printf>
  202d74:	c7 04 24 84 ba 20 00 	movl   $0x20ba84,(%esp)
  202d7b:	e8 e0 df ff ff       	call   200d60 <printf>
  202d80:	c7 04 24 c0 ba 20 00 	movl   $0x20bac0,(%esp)
  202d87:	e8 d4 df ff ff       	call   200d60 <printf>
  202d8c:	c7 04 24 fc ba 20 00 	movl   $0x20bafc,(%esp)
  202d93:	e8 c8 df ff ff       	call   200d60 <printf>
  202d98:	c7 04 24 38 bb 20 00 	movl   $0x20bb38,(%esp)
  202d9f:	e8 bc df ff ff       	call   200d60 <printf>
  202da4:	c7 04 24 74 bb 20 00 	movl   $0x20bb74,(%esp)
  202dab:	e8 b0 df ff ff       	call   200d60 <printf>
  202db0:	c7 04 24 b0 bb 20 00 	movl   $0x20bbb0,(%esp)
  202db7:	e8 a4 df ff ff       	call   200d60 <printf>
  202dbc:	c7 04 24 ec bb 20 00 	movl   $0x20bbec,(%esp)
  202dc3:	e8 98 df ff ff       	call   200d60 <printf>
  202dc8:	c7 04 24 24 bc 20 00 	movl   $0x20bc24,(%esp)
  202dcf:	e8 8c df ff ff       	call   200d60 <printf>
  202dd4:	c7 04 24 5c bc 20 00 	movl   $0x20bc5c,(%esp)
  202ddb:	e8 80 df ff ff       	call   200d60 <printf>
  202de0:	c7 04 24 90 bc 20 00 	movl   $0x20bc90,(%esp)
  202de7:	e8 74 df ff ff       	call   200d60 <printf>
  202dec:	c7 04 24 c4 bc 20 00 	movl   $0x20bcc4,(%esp)
  202df3:	e8 68 df ff ff       	call   200d60 <printf>
  202df8:	c7 04 24 f4 bc 20 00 	movl   $0x20bcf4,(%esp)
  202dff:	e8 5c df ff ff       	call   200d60 <printf>
  202e04:	83 c4 10             	add    $0x10,%esp
  202e07:	c9                   	leave
  202e08:	c3                   	ret
  202e09:	8d b4 26 00 00 00 00 	lea    0x0(%esi,%eiz,1),%esi

00202e10 <ascii_22>:
  202e10:	55                   	push   %ebp
  202e11:	89 e5                	mov    %esp,%ebp
  202e13:	83 ec 14             	sub    $0x14,%esp
  202e16:	68 34 bd 20 00       	push   $0x20bd34
  202e1b:	e8 40 df ff ff       	call   200d60 <printf>
  202e20:	c7 04 24 64 bd 20 00 	movl   $0x20bd64,(%esp)
  202e27:	e8 34 df ff ff       	call   200d60 <printf>
  202e2c:	c7 04 24 98 bd 20 00 	movl   $0x20bd98,(%esp)
  202e33:	e8 28 df ff ff       	call   200d60 <printf>
  202e38:	c7 04 24 cc bd 20 00 	movl   $0x20bdcc,(%esp)
  202e3f:	e8 1c df ff ff       	call   200d60 <printf>
  202e44:	c7 04 24 04 be 20 00 	movl   $0x20be04,(%esp)
  202e4b:	e8 10 df ff ff       	call   200d60 <printf>
  202e50:	c7 04 24 3c be 20 00 	movl   $0x20be3c,(%esp)
  202e57:	e8 04 df ff ff       	call   200d60 <printf>
  202e5c:	c7 04 24 74 be 20 00 	movl   $0x20be74,(%esp)
  202e63:	e8 f8 de ff ff       	call   200d60 <printf>
  202e68:	c7 04 24 b0 be 20 00 	movl   $0x20beb0,(%esp)
  202e6f:	e8 ec de ff ff       	call   200d60 <printf>
  202e74:	c7 04 24 ec be 20 00 	movl   $0x20beec,(%esp)
  202e7b:	e8 e0 de ff ff       	call   200d60 <printf>
  202e80:	c7 04 24 28 bf 20 00 	movl   $0x20bf28,(%esp)
  202e87:	e8 d4 de ff ff       	call   200d60 <printf>
  202e8c:	c7 04 24 64 bf 20 00 	movl   $0x20bf64,(%esp)
  202e93:	e8 c8 de ff ff       	call   200d60 <printf>
  202e98:	c7 04 24 a0 bf 20 00 	movl   $0x20bfa0,(%esp)
  202e9f:	e8 bc de ff ff       	call   200d60 <printf>
  202ea4:	c7 04 24 dc bf 20 00 	movl   $0x20bfdc,(%esp)
  202eab:	e8 b0 de ff ff       	call   200d60 <printf>
  202eb0:	c7 04 24 18 c0 20 00 	movl   $0x20c018,(%esp)
  202eb7:	e8 a4 de ff ff       	call   200d60 <printf>
  202ebc:	c7 04 24 54 c0 20 00 	movl   $0x20c054,(%esp)
  202ec3:	e8 98 de ff ff       	call   200d60 <printf>
  202ec8:	c7 04 24 90 c0 20 00 	movl   $0x20c090,(%esp)
  202ecf:	e8 8c de ff ff       	call   200d60 <printf>
  202ed4:	c7 04 24 cc c0 20 00 	movl   $0x20c0cc,(%esp)
  202edb:	e8 80 de ff ff       	call   200d60 <printf>
  202ee0:	c7 04 24 08 c1 20 00 	movl   $0x20c108,(%esp)
  202ee7:	e8 74 de ff ff       	call   200d60 <printf>
  202eec:	c7 04 24 40 c1 20 00 	movl   $0x20c140,(%esp)
  202ef3:	e8 68 de ff ff       	call   200d60 <printf>
  202ef8:	c7 04 24 78 c1 20 00 	movl   $0x20c178,(%esp)
  202eff:	e8 5c de ff ff       	call   200d60 <printf>
  202f04:	c7 04 24 b0 c1 20 00 	movl   $0x20c1b0,(%esp)
  202f0b:	e8 50 de ff ff       	call   200d60 <printf>
  202f10:	c7 04 24 e4 c1 20 00 	movl   $0x20c1e4,(%esp)
  202f17:	e8 44 de ff ff       	call   200d60 <printf>
  202f1c:	c7 04 24 18 c2 20 00 	movl   $0x20c218,(%esp)
  202f23:	e8 38 de ff ff       	call   200d60 <printf>
  202f28:	c7 04 24 48 c2 20 00 	movl   $0x20c248,(%esp)
  202f2f:	e8 2c de ff ff       	call   200d60 <printf>
  202f34:	83 c4 10             	add    $0x10,%esp
  202f37:	c9                   	leave
  202f38:	c3                   	ret
  202f39:	8d b4 26 00 00 00 00 	lea    0x0(%esi,%eiz,1),%esi

00202f40 <ascii_23>:
  202f40:	55                   	push   %ebp
  202f41:	89 e5                	mov    %esp,%ebp
  202f43:	83 ec 14             	sub    $0x14,%esp
  202f46:	68 88 c2 20 00       	push   $0x20c288
  202f4b:	e8 10 de ff ff       	call   200d60 <printf>
  202f50:	c7 04 24 b8 c2 20 00 	movl   $0x20c2b8,(%esp)
  202f57:	e8 04 de ff ff       	call   200d60 <printf>
  202f5c:	c7 04 24 ec c2 20 00 	movl   $0x20c2ec,(%esp)
  202f63:	e8 f8 dd ff ff       	call   200d60 <printf>
  202f68:	c7 04 24 20 c3 20 00 	movl   $0x20c320,(%esp)
  202f6f:	e8 ec dd ff ff       	call   200d60 <printf>
  202f74:	c7 04 24 58 c3 20 00 	movl   $0x20c358,(%esp)
  202f7b:	e8 e0 dd ff ff       	call   200d60 <printf>
  202f80:	c7 04 24 90 c3 20 00 	movl   $0x20c390,(%esp)
  202f87:	e8 d4 dd ff ff       	call   200d60 <printf>
  202f8c:	c7 04 24 c8 c3 20 00 	movl   $0x20c3c8,(%esp)
  202f93:	e8 c8 dd ff ff       	call   200d60 <printf>
  202f98:	c7 04 24 04 c4 20 00 	movl   $0x20c404,(%esp)
  202f9f:	e8 bc dd ff ff       	call   200d60 <printf>
  202fa4:	c7 04 24 40 c4 20 00 	movl   $0x20c440,(%esp)
  202fab:	e8 b0 dd ff ff       	call   200d60 <printf>
  202fb0:	c7 04 24 7c c4 20 00 	movl   $0x20c47c,(%esp)
  202fb7:	e8 a4 dd ff ff       	call   200d60 <printf>
  202fbc:	c7 04 24 b8 c4 20 00 	movl   $0x20c4b8,(%esp)
  202fc3:	e8 98 dd ff ff       	call   200d60 <printf>
  202fc8:	c7 04 24 f4 c4 20 00 	movl   $0x20c4f4,(%esp)
  202fcf:	e8 8c dd ff ff       	call   200d60 <printf>
  202fd4:	c7 04 24 30 c5 20 00 	movl   $0x20c530,(%esp)
  202fdb:	e8 80 dd ff ff       	call   200d60 <printf>
  202fe0:	c7 04 24 6c c5 20 00 	movl   $0x20c56c,(%esp)
  202fe7:	e8 74 dd ff ff       	call   200d60 <printf>
  202fec:	c7 04 24 a8 c5 20 00 	movl   $0x20c5a8,(%esp)
  202ff3:	e8 68 dd ff ff       	call   200d60 <printf>
  202ff8:	c7 04 24 e4 c5 20 00 	movl   $0x20c5e4,(%esp)
  202fff:	e8 5c dd ff ff       	call   200d60 <printf>
  203004:	c7 04 24 20 c6 20 00 	movl   $0x20c620,(%esp)
  20300b:	e8 50 dd ff ff       	call   200d60 <printf>
  203010:	c7 04 24 5c c6 20 00 	movl   $0x20c65c,(%esp)
  203017:	e8 44 dd ff ff       	call   200d60 <printf>
  20301c:	c7 04 24 94 c6 20 00 	movl   $0x20c694,(%esp)
  203023:	e8 38 dd ff ff       	call   200d60 <printf>
  203028:	c7 04 24 cc c6 20 00 	movl   $0x20c6cc,(%esp)
  20302f:	e8 2c dd ff ff       	call   200d60 <printf>
  203034:	c7 04 24 04 c7 20 00 	movl   $0x20c704,(%esp)
  20303b:	e8 20 dd ff ff       	call   200d60 <printf>
  203040:	c7 04 24 38 c7 20 00 	movl   $0x20c738,(%esp)
  203047:	e8 14 dd ff ff       	call   200d60 <printf>
  20304c:	c7 04 24 6c c7 20 00 	movl   $0x20c76c,(%esp)
  203053:	e8 08 dd ff ff       	call   200d60 <printf>
  203058:	c7 04 24 9c c7 20 00 	movl   $0x20c79c,(%esp)
  20305f:	e8 fc dc ff ff       	call   200d60 <printf>
  203064:	83 c4 10             	add    $0x10,%esp
  203067:	c9                   	leave
  203068:	c3                   	ret
  203069:	8d b4 26 00 00 00 00 	lea    0x0(%esi,%eiz,1),%esi

00203070 <ascii_24>:
  203070:	55                   	push   %ebp
  203071:	89 e5                	mov    %esp,%ebp
  203073:	83 ec 14             	sub    $0x14,%esp
  203076:	68 dc c7 20 00       	push   $0x20c7dc
  20307b:	e8 e0 dc ff ff       	call   200d60 <printf>
  203080:	c7 04 24 0c c8 20 00 	movl   $0x20c80c,(%esp)
  203087:	e8 d4 dc ff ff       	call   200d60 <printf>
  20308c:	c7 04 24 40 c8 20 00 	movl   $0x20c840,(%esp)
  203093:	e8 c8 dc ff ff       	call   200d60 <printf>
  203098:	c7 04 24 74 c8 20 00 	movl   $0x20c874,(%esp)
  20309f:	e8 bc dc ff ff       	call   200d60 <printf>
  2030a4:	c7 04 24 ac c8 20 00 	movl   $0x20c8ac,(%esp)
  2030ab:	e8 b0 dc ff ff       	call   200d60 <printf>
  2030b0:	c7 04 24 e4 c8 20 00 	movl   $0x20c8e4,(%esp)
  2030b7:	e8 a4 dc ff ff       	call   200d60 <printf>
  2030bc:	c7 04 24 1c c9 20 00 	movl   $0x20c91c,(%esp)
  2030c3:	e8 98 dc ff ff       	call   200d60 <printf>
  2030c8:	c7 04 24 58 c9 20 00 	movl   $0x20c958,(%esp)
  2030cf:	e8 8c dc ff ff       	call   200d60 <printf>
  2030d4:	c7 04 24 94 c9 20 00 	movl   $0x20c994,(%esp)
  2030db:	e8 80 dc ff ff       	call   200d60 <printf>
  2030e0:	c7 04 24 d0 c9 20 00 	movl   $0x20c9d0,(%esp)
  2030e7:	e8 74 dc ff ff       	call   200d60 <printf>
  2030ec:	c7 04 24 0c ca 20 00 	movl   $0x20ca0c,(%esp)
  2030f3:	e8 68 dc ff ff       	call   200d60 <printf>
  2030f8:	c7 04 24 48 ca 20 00 	movl   $0x20ca48,(%esp)
  2030ff:	e8 5c dc ff ff       	call   200d60 <printf>
  203104:	c7 04 24 84 ca 20 00 	movl   $0x20ca84,(%esp)
  20310b:	e8 50 dc ff ff       	call   200d60 <printf>
  203110:	c7 04 24 c0 ca 20 00 	movl   $0x20cac0,(%esp)
  203117:	e8 44 dc ff ff       	call   200d60 <printf>
  20311c:	c7 04 24 fc ca 20 00 	movl   $0x20cafc,(%esp)
  203123:	e8 38 dc ff ff       	call   200d60 <printf>
  203128:	c7 04 24 38 cb 20 00 	movl   $0x20cb38,(%esp)
  20312f:	e8 2c dc ff ff       	call   200d60 <printf>
  203134:	c7 04 24 74 cb 20 00 	movl   $0x20cb74,(%esp)
  20313b:	e8 20 dc ff ff       	call   200d60 <printf>
  203140:	c7 04 24 b0 cb 20 00 	movl   $0x20cbb0,(%esp)
  203147:	e8 14 dc ff ff       	call   200d60 <printf>
  20314c:	c7 04 24 e8 cb 20 00 	movl   $0x20cbe8,(%esp)
  203153:	e8 08 dc ff ff       	call   200d60 <printf>
  203158:	c7 04 24 20 cc 20 00 	movl   $0x20cc20,(%esp)
  20315f:	e8 fc db ff ff       	call   200d60 <printf>
  203164:	c7 04 24 58 cc 20 00 	movl   $0x20cc58,(%esp)
  20316b:	e8 f0 db ff ff       	call   200d60 <printf>
  203170:	c7 04 24 8c cc 20 00 	movl   $0x20cc8c,(%esp)
  203177:	e8 e4 db ff ff       	call   200d60 <printf>
  20317c:	c7 04 24 c0 cc 20 00 	movl   $0x20ccc0,(%esp)
  203183:	e8 d8 db ff ff       	call   200d60 <printf>
  203188:	c7 04 24 f0 cc 20 00 	movl   $0x20ccf0,(%esp)
  20318f:	e8 cc db ff ff       	call   200d60 <printf>
  203194:	83 c4 10             	add    $0x10,%esp
  203197:	c9                   	leave
  203198:	c3                   	ret
  203199:	8d b4 26 00 00 00 00 	lea    0x0(%esi,%eiz,1),%esi

002031a0 <ascii_25>:
  2031a0:	55                   	push   %ebp
  2031a1:	89 e5                	mov    %esp,%ebp
  2031a3:	83 ec 14             	sub    $0x14,%esp
  2031a6:	68 30 cd 20 00       	push   $0x20cd30
  2031ab:	e8 b0 db ff ff       	call   200d60 <printf>
  2031b0:	c7 04 24 60 cd 20 00 	movl   $0x20cd60,(%esp)
  2031b7:	e8 a4 db ff ff       	call   200d60 <printf>
  2031bc:	c7 04 24 94 cd 20 00 	movl   $0x20cd94,(%esp)
  2031c3:	e8 98 db ff ff       	call   200d60 <printf>
  2031c8:	c7 04 24 c8 cd 20 00 	movl   $0x20cdc8,(%esp)
  2031cf:	e8 8c db ff ff       	call   200d60 <printf>
  2031d4:	c7 04 24 00 ce 20 00 	movl   $0x20ce00,(%esp)
  2031db:	e8 80 db ff ff       	call   200d60 <printf>
  2031e0:	c7 04 24 38 ce 20 00 	movl   $0x20ce38,(%esp)
  2031e7:	e8 74 db ff ff       	call   200d60 <printf>
  2031ec:	c7 04 24 70 ce 20 00 	movl   $0x20ce70,(%esp)
  2031f3:	e8 68 db ff ff       	call   200d60 <printf>
  2031f8:	c7 04 24 ac ce 20 00 	movl   $0x20ceac,(%esp)
  2031ff:	e8 5c db ff ff       	call   200d60 <printf>
  203204:	c7 04 24 e8 ce 20 00 	movl   $0x20cee8,(%esp)
  20320b:	e8 50 db ff ff       	call   200d60 <printf>
  203210:	c7 04 24 24 cf 20 00 	movl   $0x20cf24,(%esp)
  203217:	e8 44 db ff ff       	call   200d60 <printf>
  20321c:	c7 04 24 60 cf 20 00 	movl   $0x20cf60,(%esp)
  203223:	e8 38 db ff ff       	call   200d60 <printf>
  203228:	c7 04 24 9c cf 20 00 	movl   $0x20cf9c,(%esp)
  20322f:	e8 2c db ff ff       	call   200d60 <printf>
  203234:	c7 04 24 d8 cf 20 00 	movl   $0x20cfd8,(%esp)
  20323b:	e8 20 db ff ff       	call   200d60 <printf>
  203240:	c7 04 24 14 d0 20 00 	movl   $0x20d014,(%esp)
  203247:	e8 14 db ff ff       	call   200d60 <printf>
  20324c:	c7 04 24 50 d0 20 00 	movl   $0x20d050,(%esp)
  203253:	e8 08 db ff ff       	call   200d60 <printf>
  203258:	c7 04 24 8c d0 20 00 	movl   $0x20d08c,(%esp)
  20325f:	e8 fc da ff ff       	call   200d60 <printf>
  203264:	c7 04 24 c8 d0 20 00 	movl   $0x20d0c8,(%esp)
  20326b:	e8 f0 da ff ff       	call   200d60 <printf>
  203270:	c7 04 24 04 d1 20 00 	movl   $0x20d104,(%esp)
  203277:	e8 e4 da ff ff       	call   200d60 <printf>
  20327c:	c7 04 24 3c d1 20 00 	movl   $0x20d13c,(%esp)
  203283:	e8 d8 da ff ff       	call   200d60 <printf>
  203288:	c7 04 24 74 d1 20 00 	movl   $0x20d174,(%esp)
  20328f:	e8 cc da ff ff       	call   200d60 <printf>
  203294:	c7 04 24 ac d1 20 00 	movl   $0x20d1ac,(%esp)
  20329b:	e8 c0 da ff ff       	call   200d60 <printf>
  2032a0:	c7 04 24 a0 ac 20 00 	movl   $0x20aca0,(%esp)
  2032a7:	e8 b4 da ff ff       	call   200d60 <printf>
  2032ac:	c7 04 24 e0 d1 20 00 	movl   $0x20d1e0,(%esp)
  2032b3:	e8 a8 da ff ff       	call   200d60 <printf>
  2032b8:	c7 04 24 10 d2 20 00 	movl   $0x20d210,(%esp)
  2032bf:	e8 9c da ff ff       	call   200d60 <printf>
  2032c4:	83 c4 10             	add    $0x10,%esp
  2032c7:	c9                   	leave
  2032c8:	c3                   	ret
  2032c9:	66 90                	xchg   %ax,%ax
  2032cb:	66 90                	xchg   %ax,%ax
  2032cd:	66 90                	xchg   %ax,%ax
  2032cf:	90                   	nop

002032d0 <print_ascii>:
  2032d0:	55                   	push   %ebp
  2032d1:	b9 19 00 00 00       	mov    $0x19,%ecx
  2032d6:	89 e5                	mov    %esp,%ebp
  2032d8:	57                   	push   %edi
  2032d9:	56                   	push   %esi
  2032da:	53                   	push   %ebx
  2032db:	8d 7d 84             	lea    -0x7c(%ebp),%edi
  2032de:	be 00 40 20 00       	mov    $0x204000,%esi
  2032e3:	81 ec 84 00 00 00    	sub    $0x84,%esp
  2032e9:	f3 a5                	rep movsl %ds:(%esi),%es:(%edi)
  2032eb:	6a 00                	push   $0x0
  2032ed:	6a 0a                	push   $0xa
  2032ef:	e8 fc cf ff ff       	call   2002f0 <vga_entry_color>
  2032f4:	5b                   	pop    %ebx
  2032f5:	5e                   	pop    %esi
  2032f6:	0f b6 c0             	movzbl %al,%eax
  2032f9:	8d 5d 84             	lea    -0x7c(%ebp),%ebx
  2032fc:	8d 75 e8             	lea    -0x18(%ebp),%esi
  2032ff:	50                   	push   %eax
  203300:	68 0c f0 20 00       	push   $0x20f00c
  203305:	e8 96 d2 ff ff       	call   2005a0 <init_terminal>
  20330a:	c7 04 24 0c f0 20 00 	movl   $0x20f00c,(%esp)
  203311:	e8 8a d3 ff ff       	call   2006a0 <flush_terminal>
  203316:	83 c4 10             	add    $0x10,%esp
  203319:	8d b4 26 00 00 00 00 	lea    0x0(%esi,%eiz,1),%esi
  203320:	83 ec 08             	sub    $0x8,%esp
  203323:	6a 00                	push   $0x0
  203325:	6a 0a                	push   $0xa
  203327:	e8 c4 cf ff ff       	call   2002f0 <vga_entry_color>
  20332c:	5a                   	pop    %edx
  20332d:	59                   	pop    %ecx
  20332e:	0f b6 c0             	movzbl %al,%eax
  203331:	50                   	push   %eax
  203332:	68 0c f0 20 00       	push   $0x20f00c
  203337:	e8 64 d2 ff ff       	call   2005a0 <init_terminal>
  20333c:	ff 13                	call   *(%ebx)
  20333e:	c7 45 80 00 00 00 00 	movl   $0x0,-0x80(%ebp)
  203345:	8b 45 80             	mov    -0x80(%ebp),%eax
  203348:	83 c4 10             	add    $0x10,%esp
  20334b:	3d 7f 96 98 00       	cmp    $0x98967f,%eax
  203350:	77 21                	ja     203373 <print_ascii+0xa3>
  203352:	8d b4 26 00 00 00 00 	lea    0x0(%esi,%eiz,1),%esi
  203359:	8d bc 27 00 00 00 00 	lea    0x0(%edi,%eiz,1),%edi
  203360:	8b 45 80             	mov    -0x80(%ebp),%eax
  203363:	83 c0 01             	add    $0x1,%eax
  203366:	89 45 80             	mov    %eax,-0x80(%ebp)
  203369:	8b 45 80             	mov    -0x80(%ebp),%eax
  20336c:	3d 7f 96 98 00       	cmp    $0x98967f,%eax
  203371:	76 ed                	jbe    203360 <print_ascii+0x90>
  203373:	83 c3 04             	add    $0x4,%ebx
  203376:	39 f3                	cmp    %esi,%ebx
  203378:	75 a6                	jne    203320 <print_ascii+0x50>
  20337a:	8d 65 f4             	lea    -0xc(%ebp),%esp
  20337d:	5b                   	pop    %ebx
  20337e:	5e                   	pop    %esi
  20337f:	5f                   	pop    %edi
  203380:	5d                   	pop    %ebp
  203381:	c3                   	ret
  203382:	66 90                	xchg   %ax,%ax
  203384:	66 90                	xchg   %ax,%ax
  203386:	66 90                	xchg   %ax,%ax
  203388:	66 90                	xchg   %ax,%ax
  20338a:	66 90                	xchg   %ax,%ax
  20338c:	66 90                	xchg   %ax,%ax
  20338e:	66 90                	xchg   %ax,%ax

00203390 <_start>:
  203390:	bc d0 72 21 00       	mov    $0x2172d0,%esp
  203395:	54                   	push   %esp
  203396:	e8 a5 cc ff ff       	call   200040 <kernel_main>
  20339b:	fa                   	cli

0020339c <_start.hang>:
  20339c:	f4                   	hlt
  20339d:	eb fd                	jmp    20339c <_start.hang>

0020339f <_start.end>:
  20339f:	90                   	nop

002033a0 <gdt_flush>:
  2033a0:	8b 44 24 04          	mov    0x4(%esp),%eax
  2033a4:	0f 01 10             	lgdtl  (%eax)
  2033a7:	66 b8 10 00          	mov    $0x10,%ax
  2033ab:	8e d8                	mov    %eax,%ds
  2033ad:	8e c0                	mov    %eax,%es
  2033af:	8e e0                	mov    %eax,%fs
  2033b1:	8e e8                	mov    %eax,%gs
  2033b3:	66 b8 18 00          	mov    $0x18,%ax
  2033b7:	8e d0                	mov    %eax,%ss
  2033b9:	ea c0 33 20 00 08 00 	ljmp   $0x8,$0x2033c0

002033c0 <gdt_flush.flush>:
  2033c0:	c3                   	ret
  2033c1:	66 90                	xchg   %ax,%ax
  2033c3:	66 90                	xchg   %ax,%ax
  2033c5:	66 90                	xchg   %ax,%ax
  2033c7:	66 90                	xchg   %ax,%ax
  2033c9:	66 90                	xchg   %ax,%ax
  2033cb:	66 90                	xchg   %ax,%ax
  2033cd:	66 90                	xchg   %ax,%ax
  2033cf:	90                   	nop

002033d0 <interupt_0>:
  2033d0:	6a 00                	push   $0x0
  2033d2:	e8 19 d5 ff ff       	call   2008f0 <general_handler>
  2033d7:	83 c4 04             	add    $0x4,%esp
  2033da:	cf                   	iret

002033db <interupt_1>:
  2033db:	6a 01                	push   $0x1
  2033dd:	e8 0e d5 ff ff       	call   2008f0 <general_handler>
  2033e2:	83 c4 04             	add    $0x4,%esp
  2033e5:	cf                   	iret

002033e6 <interupt_2>:
  2033e6:	6a 02                	push   $0x2
  2033e8:	e8 03 d5 ff ff       	call   2008f0 <general_handler>
  2033ed:	83 c4 04             	add    $0x4,%esp
  2033f0:	cf                   	iret

002033f1 <interupt_3>:
  2033f1:	6a 03                	push   $0x3
  2033f3:	e8 f8 d4 ff ff       	call   2008f0 <general_handler>
  2033f8:	83 c4 04             	add    $0x4,%esp
  2033fb:	cf                   	iret

002033fc <interupt_4>:
  2033fc:	6a 04                	push   $0x4
  2033fe:	e8 ed d4 ff ff       	call   2008f0 <general_handler>
  203403:	83 c4 04             	add    $0x4,%esp
  203406:	cf                   	iret

00203407 <interupt_5>:
  203407:	6a 05                	push   $0x5
  203409:	e8 e2 d4 ff ff       	call   2008f0 <general_handler>
  20340e:	83 c4 04             	add    $0x4,%esp
  203411:	cf                   	iret

00203412 <interupt_6>:
  203412:	6a 06                	push   $0x6
  203414:	e8 d7 d4 ff ff       	call   2008f0 <general_handler>
  203419:	83 c4 04             	add    $0x4,%esp
  20341c:	cf                   	iret

0020341d <interupt_7>:
  20341d:	6a 07                	push   $0x7
  20341f:	e8 cc d4 ff ff       	call   2008f0 <general_handler>
  203424:	83 c4 04             	add    $0x4,%esp
  203427:	cf                   	iret

00203428 <interupt_err_8>:
  203428:	6a 08                	push   $0x8
  20342a:	e8 c1 d4 ff ff       	call   2008f0 <general_handler>
  20342f:	83 c4 04             	add    $0x4,%esp
  203432:	cf                   	iret

00203433 <interupt_9>:
  203433:	6a 09                	push   $0x9
  203435:	e8 b6 d4 ff ff       	call   2008f0 <general_handler>
  20343a:	83 c4 04             	add    $0x4,%esp
  20343d:	cf                   	iret

0020343e <interupt_err_10>:
  20343e:	6a 0a                	push   $0xa
  203440:	e8 ab d4 ff ff       	call   2008f0 <general_handler>
  203445:	83 c4 04             	add    $0x4,%esp
  203448:	cf                   	iret

00203449 <interupt_err_11>:
  203449:	6a 0b                	push   $0xb
  20344b:	e8 a0 d4 ff ff       	call   2008f0 <general_handler>
  203450:	83 c4 04             	add    $0x4,%esp
  203453:	cf                   	iret

00203454 <interupt_err_12>:
  203454:	6a 0c                	push   $0xc
  203456:	e8 95 d4 ff ff       	call   2008f0 <general_handler>
  20345b:	83 c4 04             	add    $0x4,%esp
  20345e:	cf                   	iret

0020345f <interupt_err_13>:
  20345f:	6a 0d                	push   $0xd
  203461:	e8 8a d4 ff ff       	call   2008f0 <general_handler>
  203466:	83 c4 04             	add    $0x4,%esp
  203469:	cf                   	iret

0020346a <interupt_err_14>:
  20346a:	6a 0e                	push   $0xe
  20346c:	e8 7f d4 ff ff       	call   2008f0 <general_handler>
  203471:	83 c4 04             	add    $0x4,%esp
  203474:	cf                   	iret

00203475 <interupt_15>:
  203475:	6a 0f                	push   $0xf
  203477:	e8 74 d4 ff ff       	call   2008f0 <general_handler>
  20347c:	83 c4 04             	add    $0x4,%esp
  20347f:	cf                   	iret

00203480 <interupt_16>:
  203480:	6a 10                	push   $0x10
  203482:	e8 69 d4 ff ff       	call   2008f0 <general_handler>
  203487:	83 c4 04             	add    $0x4,%esp
  20348a:	cf                   	iret

0020348b <interupt_err_17>:
  20348b:	6a 11                	push   $0x11
  20348d:	e8 5e d4 ff ff       	call   2008f0 <general_handler>
  203492:	83 c4 04             	add    $0x4,%esp
  203495:	cf                   	iret

00203496 <interupt_18>:
  203496:	6a 12                	push   $0x12
  203498:	e8 53 d4 ff ff       	call   2008f0 <general_handler>
  20349d:	83 c4 04             	add    $0x4,%esp
  2034a0:	cf                   	iret

002034a1 <interupt_19>:
  2034a1:	6a 13                	push   $0x13
  2034a3:	e8 48 d4 ff ff       	call   2008f0 <general_handler>
  2034a8:	83 c4 04             	add    $0x4,%esp
  2034ab:	cf                   	iret

002034ac <interupt_20>:
  2034ac:	6a 14                	push   $0x14
  2034ae:	e8 3d d4 ff ff       	call   2008f0 <general_handler>
  2034b3:	83 c4 04             	add    $0x4,%esp
  2034b6:	cf                   	iret

002034b7 <interupt_err_21>:
  2034b7:	6a 15                	push   $0x15
  2034b9:	e8 32 d4 ff ff       	call   2008f0 <general_handler>
  2034be:	83 c4 04             	add    $0x4,%esp
  2034c1:	cf                   	iret

002034c2 <interupt_22>:
  2034c2:	6a 16                	push   $0x16
  2034c4:	e8 27 d4 ff ff       	call   2008f0 <general_handler>
  2034c9:	83 c4 04             	add    $0x4,%esp
  2034cc:	cf                   	iret

002034cd <interupt_23>:
  2034cd:	6a 17                	push   $0x17
  2034cf:	e8 1c d4 ff ff       	call   2008f0 <general_handler>
  2034d4:	83 c4 04             	add    $0x4,%esp
  2034d7:	cf                   	iret

002034d8 <interupt_24>:
  2034d8:	6a 18                	push   $0x18
  2034da:	e8 11 d4 ff ff       	call   2008f0 <general_handler>
  2034df:	83 c4 04             	add    $0x4,%esp
  2034e2:	cf                   	iret

002034e3 <interupt_25>:
  2034e3:	6a 19                	push   $0x19
  2034e5:	e8 06 d4 ff ff       	call   2008f0 <general_handler>
  2034ea:	83 c4 04             	add    $0x4,%esp
  2034ed:	cf                   	iret

002034ee <interupt_26>:
  2034ee:	6a 1a                	push   $0x1a
  2034f0:	e8 fb d3 ff ff       	call   2008f0 <general_handler>
  2034f5:	83 c4 04             	add    $0x4,%esp
  2034f8:	cf                   	iret

002034f9 <interupt_27>:
  2034f9:	6a 1b                	push   $0x1b
  2034fb:	e8 f0 d3 ff ff       	call   2008f0 <general_handler>
  203500:	83 c4 04             	add    $0x4,%esp
  203503:	cf                   	iret

00203504 <interupt_28>:
  203504:	6a 1c                	push   $0x1c
  203506:	e8 e5 d3 ff ff       	call   2008f0 <general_handler>
  20350b:	83 c4 04             	add    $0x4,%esp
  20350e:	cf                   	iret

0020350f <interupt_29>:
  20350f:	6a 1d                	push   $0x1d
  203511:	e8 da d3 ff ff       	call   2008f0 <general_handler>
  203516:	83 c4 04             	add    $0x4,%esp
  203519:	cf                   	iret

0020351a <interupt_30>:
  20351a:	6a 1e                	push   $0x1e
  20351c:	e8 cf d3 ff ff       	call   2008f0 <general_handler>
  203521:	83 c4 04             	add    $0x4,%esp
  203524:	cf                   	iret

00203525 <interupt_31>:
  203525:	6a 1f                	push   $0x1f
  203527:	e8 c4 d3 ff ff       	call   2008f0 <general_handler>
  20352c:	83 c4 04             	add    $0x4,%esp
  20352f:	cf                   	iret

00203530 <interupt_32>:
  203530:	6a 20                	push   $0x20
  203532:	e8 b9 d3 ff ff       	call   2008f0 <general_handler>
  203537:	83 c4 04             	add    $0x4,%esp
  20353a:	cf                   	iret

0020353b <interupt_33>:
  20353b:	6a 21                	push   $0x21
  20353d:	e8 ae d3 ff ff       	call   2008f0 <general_handler>
  203542:	83 c4 04             	add    $0x4,%esp
  203545:	cf                   	iret

00203546 <interupt_34>:
  203546:	6a 22                	push   $0x22
  203548:	e8 a3 d3 ff ff       	call   2008f0 <general_handler>
  20354d:	83 c4 04             	add    $0x4,%esp
  203550:	cf                   	iret

00203551 <interupt_35>:
  203551:	6a 23                	push   $0x23
  203553:	e8 98 d3 ff ff       	call   2008f0 <general_handler>
  203558:	83 c4 04             	add    $0x4,%esp
  20355b:	cf                   	iret

0020355c <interupt_36>:
  20355c:	6a 24                	push   $0x24
  20355e:	e8 8d d3 ff ff       	call   2008f0 <general_handler>
  203563:	83 c4 04             	add    $0x4,%esp
  203566:	cf                   	iret

00203567 <interupt_37>:
  203567:	6a 25                	push   $0x25
  203569:	e8 82 d3 ff ff       	call   2008f0 <general_handler>
  20356e:	83 c4 04             	add    $0x4,%esp
  203571:	cf                   	iret

00203572 <interupt_38>:
  203572:	6a 26                	push   $0x26
  203574:	e8 77 d3 ff ff       	call   2008f0 <general_handler>
  203579:	83 c4 04             	add    $0x4,%esp
  20357c:	cf                   	iret

0020357d <interupt_39>:
  20357d:	6a 27                	push   $0x27
  20357f:	e8 6c d3 ff ff       	call   2008f0 <general_handler>
  203584:	83 c4 04             	add    $0x4,%esp
  203587:	cf                   	iret

00203588 <interupt_40>:
  203588:	6a 28                	push   $0x28
  20358a:	e8 61 d3 ff ff       	call   2008f0 <general_handler>
  20358f:	83 c4 04             	add    $0x4,%esp
  203592:	cf                   	iret

00203593 <interupt_41>:
  203593:	6a 29                	push   $0x29
  203595:	e8 56 d3 ff ff       	call   2008f0 <general_handler>
  20359a:	83 c4 04             	add    $0x4,%esp
  20359d:	cf                   	iret

0020359e <interupt_42>:
  20359e:	6a 2a                	push   $0x2a
  2035a0:	e8 4b d3 ff ff       	call   2008f0 <general_handler>
  2035a5:	83 c4 04             	add    $0x4,%esp
  2035a8:	cf                   	iret

002035a9 <interupt_43>:
  2035a9:	6a 2b                	push   $0x2b
  2035ab:	e8 40 d3 ff ff       	call   2008f0 <general_handler>
  2035b0:	83 c4 04             	add    $0x4,%esp
  2035b3:	cf                   	iret

002035b4 <interupt_44>:
  2035b4:	6a 2c                	push   $0x2c
  2035b6:	e8 35 d3 ff ff       	call   2008f0 <general_handler>
  2035bb:	83 c4 04             	add    $0x4,%esp
  2035be:	cf                   	iret

002035bf <interupt_45>:
  2035bf:	6a 2d                	push   $0x2d
  2035c1:	e8 2a d3 ff ff       	call   2008f0 <general_handler>
  2035c6:	83 c4 04             	add    $0x4,%esp
  2035c9:	cf                   	iret

002035ca <interupt_46>:
  2035ca:	6a 2e                	push   $0x2e
  2035cc:	e8 1f d3 ff ff       	call   2008f0 <general_handler>
  2035d1:	83 c4 04             	add    $0x4,%esp
  2035d4:	cf                   	iret

002035d5 <interupt_47>:
  2035d5:	6a 2f                	push   $0x2f
  2035d7:	e8 14 d3 ff ff       	call   2008f0 <general_handler>
  2035dc:	83 c4 04             	add    $0x4,%esp
  2035df:	cf                   	iret

002035e0 <interupt_48>:
  2035e0:	6a 30                	push   $0x30
  2035e2:	e8 09 d3 ff ff       	call   2008f0 <general_handler>
  2035e7:	83 c4 04             	add    $0x4,%esp
  2035ea:	cf                   	iret

002035eb <interupt_49>:
  2035eb:	6a 31                	push   $0x31
  2035ed:	e8 fe d2 ff ff       	call   2008f0 <general_handler>
  2035f2:	83 c4 04             	add    $0x4,%esp
  2035f5:	cf                   	iret

002035f6 <interupt_table>:
  2035f6:	d0 33                	shlb   $1,(%ebx)
  2035f8:	20 00                	and    %al,(%eax)
  2035fa:	db 33                	(bad) (%ebx)
  2035fc:	20 00                	and    %al,(%eax)
  2035fe:	e6 33                	out    %al,$0x33
  203600:	20 00                	and    %al,(%eax)
  203602:	f1                   	int1
  203603:	33 20                	xor    (%eax),%esp
  203605:	00 fc                	add    %bh,%ah
  203607:	33 20                	xor    (%eax),%esp
  203609:	00 07                	add    %al,(%edi)
  20360b:	34 20                	xor    $0x20,%al
  20360d:	00 12                	add    %dl,(%edx)
  20360f:	34 20                	xor    $0x20,%al
  203611:	00 1d 34 20 00 28    	add    %bl,0x28002034
  203617:	34 20                	xor    $0x20,%al
  203619:	00 33                	add    %dh,(%ebx)
  20361b:	34 20                	xor    $0x20,%al
  20361d:	00 3e                	add    %bh,(%esi)
  20361f:	34 20                	xor    $0x20,%al
  203621:	00 49 34             	add    %cl,0x34(%ecx)
  203624:	20 00                	and    %al,(%eax)
  203626:	54                   	push   %esp
  203627:	34 20                	xor    $0x20,%al
  203629:	00 5f 34             	add    %bl,0x34(%edi)
  20362c:	20 00                	and    %al,(%eax)
  20362e:	6a 34                	push   $0x34
  203630:	20 00                	and    %al,(%eax)
  203632:	75 34                	jne    203668 <interupt_table+0x72>
  203634:	20 00                	and    %al,(%eax)
  203636:	80 34 20 00          	xorb   $0x0,(%eax,%eiz,1)
  20363a:	8b 34 20             	mov    (%eax,%eiz,1),%esi
  20363d:	00 96 34 20 00 a1    	add    %dl,-0x5effdfcc(%esi)
  203643:	34 20                	xor    $0x20,%al
  203645:	00 ac 34 20 00 b7 34 	add    %ch,0x34b70020(%esp,%esi,1)
  20364c:	20 00                	and    %al,(%eax)
  20364e:	c2 34 20             	ret    $0x2034
  203651:	00 cd                	add    %cl,%ch
  203653:	34 20                	xor    $0x20,%al
  203655:	00 d8                	add    %bl,%al
  203657:	34 20                	xor    $0x20,%al
  203659:	00 e3                	add    %ah,%bl
  20365b:	34 20                	xor    $0x20,%al
  20365d:	00 ee                	add    %ch,%dh
  20365f:	34 20                	xor    $0x20,%al
  203661:	00 f9                	add    %bh,%cl
  203663:	34 20                	xor    $0x20,%al
  203665:	00 04 35 20 00 0f 35 	add    %al,0x350f0020(,%esi,1)
  20366c:	20 00                	and    %al,(%eax)
  20366e:	1a 35 20 00 25 35    	sbb    0x35250020,%dh
  203674:	20 00                	and    %al,(%eax)
  203676:	30 35 20 00 3b 35    	xor    %dh,0x353b0020
  20367c:	20 00                	and    %al,(%eax)
  20367e:	46                   	inc    %esi
  20367f:	35 20 00 51 35       	xor    $0x35510020,%eax
  203684:	20 00                	and    %al,(%eax)
  203686:	5c                   	pop    %esp
  203687:	35 20 00 67 35       	xor    $0x35670020,%eax
  20368c:	20 00                	and    %al,(%eax)
  20368e:	72 35                	jb     2036c5 <interupt_table+0xcf>
  203690:	20 00                	and    %al,(%eax)
  203692:	7d 35                	jge    2036c9 <interupt_table+0xd3>
  203694:	20 00                	and    %al,(%eax)
  203696:	88 35 20 00 93 35    	mov    %dh,0x35930020
  20369c:	20 00                	and    %al,(%eax)
  20369e:	9e                   	sahf
  20369f:	35 20 00 a9 35       	xor    $0x35a90020,%eax
  2036a4:	20 00                	and    %al,(%eax)
  2036a6:	b4 35                	mov    $0x35,%ah
  2036a8:	20 00                	and    %al,(%eax)
  2036aa:	bf 35 20 00 ca       	mov    $0xca002035,%edi
  2036af:	35 20 00 d5 35       	xor    $0x35d50020,%eax
  2036b4:	20 00                	and    %al,(%eax)
  2036b6:	e0 35                	loopne 2036ed <interupt_table+0xf7>
  2036b8:	20 00                	and    %al,(%eax)
  2036ba:	eb 35                	jmp    2036f1 <interupt_table+0xfb>
  2036bc:	20 00                	and    %al,(%eax)
